(dp0
S'sheet1'
p1
(dp2
I0
(dp3
S'y'
p4
S'0.0507'
p5
sS'x'
p6
S'0.0'
p7
sS'Z'
p8
(dp9
S'formula'
p10
V[0, 'y']*2
p11
ssS'W'
p12
(dp13
g10
V[0, 'Z']*[0, 'Z']
p14
sssI1
(dp15
g4
S'0.0512'
p16
sg6
S'10.0'
p17
sg8
(dp18
g10
V[1, 'y']*2
p19
ssg12
(dp20
g10
V[1, 'Z']*[1, 'Z']
p21
sssI2
(dp22
g4
S'0.0516'
p23
sg6
S'20.0'
p24
sg8
(dp25
g10
V[2, 'y']*2
p26
ssg12
(dp27
g10
V[2, 'Z']*[2, 'Z']
p28
sssI3
(dp29
g4
S'0.0518'
p30
sg6
S'30.0'
p31
sg8
(dp32
g10
V[3, 'y']*2
p33
ssg12
(dp34
g10
V[3, 'Z']*[3, 'Z']
p35
sssI4
(dp36
g4
S'0.052'
p37
sg6
S'40.0'
p38
sg8
(dp39
g10
V[4, 'y']*2
p40
ssg12
(dp41
g10
V[4, 'Z']*[4, 'Z']
p42
sssI5
(dp43
g4
S'0.0523'
p44
sg6
S'50.0'
p45
sg8
(dp46
g10
V[5, 'y']*2
p47
ssg12
(dp48
g10
V[5, 'Z']*[5, 'Z']
p49
sssI6
(dp50
g4
S'0.0527'
p51
sg6
S'60.0'
p52
sg8
(dp53
g10
V[6, 'y']*2
p54
ssg12
(dp55
g10
V[6, 'Z']*[6, 'Z']
p56
sssI7
(dp57
g4
S'0.0529'
p58
sg6
S'70.0'
p59
sg8
(dp60
g10
V[7, 'y']*2
p61
ssg12
(dp62
g10
V[7, 'Z']*[7, 'Z']
p63
sssI8
(dp64
g4
S'0.0532'
p65
sg6
S'80.0'
p66
sg8
(dp67
g10
V[8, 'y']*2
p68
ssg12
(dp69
g10
V[8, 'Z']*[8, 'Z']
p70
sssI9
(dp71
g4
S'0.0535'
p72
sg6
S'90.0'
p73
sg8
(dp74
g10
V[9, 'y']*2
p75
ssg12
(dp76
g10
V[9, 'Z']*[9, 'Z']
p77
sssI10
(dp78
g4
S'0.0539'
p79
sg6
S'100.0'
p80
sg8
(dp81
g10
V[10, 'y']*2
p82
ssg12
(dp83
g10
V[10, 'Z']*[10, 'Z']
p84
sssI11
(dp85
g4
S'0.0542'
p86
sg6
S'110.0'
p87
sg8
(dp88
g10
V[11, 'y']*2
p89
ssg12
(dp90
g10
V[11, 'Z']*[11, 'Z']
p91
sssI12
(dp92
g4
S'0.0545'
p93
sg6
S'120.0'
p94
sg8
(dp95
g10
V[12, 'y']*2
p96
ssg12
(dp97
g10
V[12, 'Z']*[12, 'Z']
p98
sssI13
(dp99
g4
S'0.0548'
p100
sg6
S'130.0'
p101
sg8
(dp102
g10
V[13, 'y']*2
p103
ssg12
(dp104
g10
V[13, 'Z']*[13, 'Z']
p105
sssI14
(dp106
g4
S'0.0551'
p107
sg6
S'140.0'
p108
sg8
(dp109
g10
V[14, 'y']*2
p110
ssg12
(dp111
g10
V[14, 'Z']*[14, 'Z']
p112
sssI15
(dp113
g4
S'0.0554'
p114
sg6
S'150.0'
p115
sg8
(dp116
g10
V[15, 'y']*2
p117
ssg12
(dp118
g10
V[15, 'Z']*[15, 'Z']
p119
sssI16
(dp120
g4
S'0.0557'
p121
sg6
S'160.0'
p122
sg8
(dp123
g10
V[16, 'y']*2
p124
ssg12
(dp125
g10
V[16, 'Z']*[16, 'Z']
p126
sssI17
(dp127
g4
S'0.056'
p128
sg6
S'170.0'
p129
sg8
(dp130
g10
V[17, 'y']*2
p131
ssg12
(dp132
g10
V[17, 'Z']*[17, 'Z']
p133
sssI18
(dp134
g4
S'0.0563'
p135
sg6
S'180.0'
p136
sg8
(dp137
g10
V[18, 'y']*2
p138
ssg12
(dp139
g10
V[18, 'Z']*[18, 'Z']
p140
sssI19
(dp141
g4
S'0.0566'
p142
sg6
S'190.0'
p143
sg8
(dp144
g10
V[19, 'y']*2
p145
ssg12
(dp146
g10
V[19, 'Z']*[19, 'Z']
p147
sssI20
(dp148
g4
S'0.0569'
p149
sg6
S'200.0'
p150
sg8
(dp151
g10
V[20, 'y']*2
p152
ssg12
(dp153
g10
V[20, 'Z']*[20, 'Z']
p154
sssI21
(dp155
g4
S'0.0573'
p156
sg6
S'210.0'
p157
sg8
(dp158
g10
V[21, 'y']*2
p159
ssg12
(dp160
g10
V[21, 'Z']*[21, 'Z']
p161
sssI22
(dp162
g4
S'0.0575'
p163
sg6
S'220.0'
p164
sg8
(dp165
g10
V[22, 'y']*2
p166
ssg12
(dp167
g10
V[22, 'Z']*[22, 'Z']
p168
sssI23
(dp169
g4
S'0.0579'
p170
sg6
S'230.0'
p171
sg8
(dp172
g10
V[23, 'y']*2
p173
ssg12
(dp174
g10
V[23, 'Z']*[23, 'Z']
p175
sssI24
(dp176
g4
S'0.0582'
p177
sg6
S'240.0'
p178
sg8
(dp179
g10
V[24, 'y']*2
p180
ssg12
(dp181
g10
V[24, 'Z']*[24, 'Z']
p182
sssI25
(dp183
g4
S'0.0586'
p184
sg6
S'250.0'
p185
sg8
(dp186
g10
V[25, 'y']*2
p187
ssg12
(dp188
g10
V[25, 'Z']*[25, 'Z']
p189
sssI26
(dp190
g4
S'0.0587'
p191
sg6
S'260.0'
p192
sg8
(dp193
g10
V[26, 'y']*2
p194
ssg12
(dp195
g10
V[26, 'Z']*[26, 'Z']
p196
sssI27
(dp197
g4
S'0.059'
p198
sg6
S'270.0'
p199
sg8
(dp200
g10
V[27, 'y']*2
p201
ssg12
(dp202
g10
V[27, 'Z']*[27, 'Z']
p203
sssI28
(dp204
g4
S'0.0596'
p205
sg6
S'280.0'
p206
sg8
(dp207
g10
V[28, 'y']*2
p208
ssg12
(dp209
g10
V[28, 'Z']*[28, 'Z']
p210
sssI29
(dp211
g4
S'0.0597'
p212
sg6
S'290.0'
p213
sg8
(dp214
g10
V[29, 'y']*2
p215
ssg12
(dp216
g10
V[29, 'Z']*[29, 'Z']
p217
sssI30
(dp218
g4
S'0.0603'
p219
sg6
S'300.0'
p220
sg8
(dp221
g10
V[30, 'y']*2
p222
ssg12
(dp223
g10
V[30, 'Z']*[30, 'Z']
p224
sssI31
(dp225
g4
S'0.0604'
p226
sg6
S'310.0'
p227
sg8
(dp228
g10
V[31, 'y']*2
p229
ssg12
(dp230
g10
V[31, 'Z']*[31, 'Z']
p231
sssI32
(dp232
g4
S'0.0607'
p233
sg6
S'320.0'
p234
sg8
(dp235
g10
V[32, 'y']*2
p236
ssg12
(dp237
g10
V[32, 'Z']*[32, 'Z']
p238
sssI33
(dp239
g4
S'0.061'
p240
sg6
S'330.0'
p241
sg8
(dp242
g10
V[33, 'y']*2
p243
ssg12
(dp244
g10
V[33, 'Z']*[33, 'Z']
p245
sssI34
(dp246
g4
S'0.0613'
p247
sg6
S'340.0'
p248
sg8
(dp249
g10
V[34, 'y']*2
p250
ssg12
(dp251
g10
V[34, 'Z']*[34, 'Z']
p252
sssI35
(dp253
g4
S'0.0616'
p254
sg6
S'350.0'
p255
sg8
(dp256
g10
V[35, 'y']*2
p257
ssg12
(dp258
g10
V[35, 'Z']*[35, 'Z']
p259
sssI36
(dp260
g4
S'0.0619'
p261
sg6
S'360.0'
p262
sg8
(dp263
g10
V[36, 'y']*2
p264
ssg12
(dp265
g10
V[36, 'Z']*[36, 'Z']
p266
sssI37
(dp267
g4
S'0.0623'
p268
sg6
S'370.0'
p269
sg8
(dp270
g10
V[37, 'y']*2
p271
ssg12
(dp272
g10
V[37, 'Z']*[37, 'Z']
p273
sssI38
(dp274
g4
S'0.0626'
p275
sg6
S'380.0'
p276
sg8
(dp277
g10
V[38, 'y']*2
p278
ssg12
(dp279
g10
V[38, 'Z']*[38, 'Z']
p280
sssI39
(dp281
g4
S'0.0629'
p282
sg6
S'390.0'
p283
sg8
(dp284
g10
V[39, 'y']*2
p285
ssg12
(dp286
g10
V[39, 'Z']*[39, 'Z']
p287
sssI40
(dp288
g4
S'0.063'
p289
sg6
S'400.0'
p290
sg8
(dp291
g10
V[40, 'y']*2
p292
ssg12
(dp293
g10
V[40, 'Z']*[40, 'Z']
p294
sssI41
(dp295
g4
S'0.0635'
p296
sg6
S'410.0'
p297
sg8
(dp298
g10
V[41, 'y']*2
p299
ssg12
(dp300
g10
V[41, 'Z']*[41, 'Z']
p301
sssI42
(dp302
g4
S'0.0637'
p303
sg6
S'420.0'
p304
sg8
(dp305
g10
V[42, 'y']*2
p306
ssg12
(dp307
g10
V[42, 'Z']*[42, 'Z']
p308
sssI43
(dp309
g4
S'0.064'
p310
sg6
S'430.0'
p311
sg8
(dp312
g10
V[43, 'y']*2
p313
ssg12
(dp314
g10
V[43, 'Z']*[43, 'Z']
p315
sssI44
(dp316
g4
S'0.0644'
p317
sg6
S'440.0'
p318
sg8
(dp319
g10
V[44, 'y']*2
p320
ssg12
(dp321
g10
V[44, 'Z']*[44, 'Z']
p322
sssI45
(dp323
g4
S'0.0647'
p324
sg6
S'450.0'
p325
sg8
(dp326
g10
V[45, 'y']*2
p327
ssg12
(dp328
g10
V[45, 'Z']*[45, 'Z']
p329
sssI46
(dp330
g4
S'0.0651'
p331
sg6
S'460.0'
p332
sg8
(dp333
g10
V[46, 'y']*2
p334
ssg12
(dp335
g10
V[46, 'Z']*[46, 'Z']
p336
sssI47
(dp337
g4
S'0.0654'
p338
sg6
S'470.0'
p339
sg8
(dp340
g10
V[47, 'y']*2
p341
ssg12
(dp342
g10
V[47, 'Z']*[47, 'Z']
p343
sssI48
(dp344
g4
S'0.0656'
p345
sg6
S'480.0'
p346
sg8
(dp347
g10
V[48, 'y']*2
p348
ssg12
(dp349
g10
V[48, 'Z']*[48, 'Z']
p350
sssI49
(dp351
g4
S'0.0659'
p352
sg6
S'490.0'
p353
sg8
(dp354
g10
V[49, 'y']*2
p355
ssg12
(dp356
g10
V[49, 'Z']*[49, 'Z']
p357
sssI50
(dp358
g4
S'0.0663'
p359
sg6
S'500.0'
p360
sg8
(dp361
g10
V[50, 'y']*2
p362
ssg12
(dp363
g10
V[50, 'Z']*[50, 'Z']
p364
sssI51
(dp365
g4
S'0.0665'
p366
sg6
S'510.0'
p367
sg8
(dp368
g10
V[51, 'y']*2
p369
ssg12
(dp370
g10
V[51, 'Z']*[51, 'Z']
p371
sssI52
(dp372
g4
S'0.0668'
p373
sg6
S'520.0'
p374
sg8
(dp375
g10
V[52, 'y']*2
p376
ssg12
(dp377
g10
V[52, 'Z']*[52, 'Z']
p378
sssI53
(dp379
g4
S'0.0671'
p380
sg6
S'530.0'
p381
sg8
(dp382
g10
V[53, 'y']*2
p383
ssg12
(dp384
g10
V[53, 'Z']*[53, 'Z']
p385
sssI54
(dp386
g4
S'0.0674'
p387
sg6
S'540.0'
p388
sg8
(dp389
g10
V[54, 'y']*2
p390
ssg12
(dp391
g10
V[54, 'Z']*[54, 'Z']
p392
sssI55
(dp393
g4
S'0.0678'
p394
sg6
S'550.0'
p395
sg8
(dp396
g10
V[55, 'y']*2
p397
ssg12
(dp398
g10
V[55, 'Z']*[55, 'Z']
p399
sssI56
(dp400
g4
S'0.0703'
p401
sg6
S'560.0'
p402
sg8
(dp403
g10
V[56, 'y']*2
p404
ssg12
(dp405
g10
V[56, 'Z']*[56, 'Z']
p406
sssI57
(dp407
g4
S'0.0684'
p408
sg6
S'570.0'
p409
sg8
(dp410
g10
V[57, 'y']*2
p411
ssg12
(dp412
g10
V[57, 'Z']*[57, 'Z']
p413
sssI58
(dp414
g4
S'0.0696'
p415
sg6
S'580.0'
p416
sg8
(dp417
g10
V[58, 'y']*2
p418
ssg12
(dp419
g10
V[58, 'Z']*[58, 'Z']
p420
sssI59
(dp421
g4
S'0.0692'
p422
sg6
S'590.0'
p423
sg8
(dp424
g10
V[59, 'y']*2
p425
ssg12
(dp426
g10
V[59, 'Z']*[59, 'Z']
p427
sssI60
(dp428
g4
S'0.0701'
p429
sg6
S'600.0'
p430
sg8
(dp431
g10
V[60, 'y']*2
p432
ssg12
(dp433
g10
V[60, 'Z']*[60, 'Z']
p434
sssI61
(dp435
g4
S'0.0697'
p436
sg6
S'610.0'
p437
sg8
(dp438
g10
V[61, 'y']*2
p439
ssg12
(dp440
g10
V[61, 'Z']*[61, 'Z']
p441
sssI62
(dp442
g4
S'0.0704'
p443
sg6
S'620.0'
p444
sg8
(dp445
g10
V[62, 'y']*2
p446
ssg12
(dp447
g10
V[62, 'Z']*[62, 'Z']
p448
sssI63
(dp449
g4
S'0.0709'
p450
sg6
S'630.0'
p451
sg8
(dp452
g10
V[63, 'y']*2
p453
ssg12
(dp454
g10
V[63, 'Z']*[63, 'Z']
p455
sssI64
(dp456
g4
S'0.0712'
p457
sg6
S'640.0'
p458
sg8
(dp459
g10
V[64, 'y']*2
p460
ssg12
(dp461
g10
V[64, 'Z']*[64, 'Z']
p462
sssI65
(dp463
g4
S'0.0714'
p464
sg6
S'650.0'
p465
sg8
(dp466
g10
V[65, 'y']*2
p467
ssg12
(dp468
g10
V[65, 'Z']*[65, 'Z']
p469
sssI66
(dp470
g4
S'0.072'
p471
sg6
S'660.0'
p472
sg8
(dp473
g10
V[66, 'y']*2
p474
ssg12
(dp475
g10
V[66, 'Z']*[66, 'Z']
p476
sssI67
(dp477
g4
S'0.0717'
p478
sg6
S'670.0'
p479
sg8
(dp480
g10
V[67, 'y']*2
p481
ssg12
(dp482
g10
V[67, 'Z']*[67, 'Z']
p483
sssI68
(dp484
g4
S'0.0724'
p485
sg6
S'680.0'
p486
sg8
(dp487
g10
V[68, 'y']*2
p488
ssg12
(dp489
g10
V[68, 'Z']*[68, 'Z']
p490
sssI69
(dp491
g4
S'0.0723'
p492
sg6
S'690.0'
p493
sg8
(dp494
g10
V[69, 'y']*2
p495
ssg12
(dp496
g10
V[69, 'Z']*[69, 'Z']
p497
sssI70
(dp498
g4
S'0.0728'
p499
sg6
S'700.0'
p500
sg8
(dp501
g10
V[70, 'y']*2
p502
ssg12
(dp503
g10
V[70, 'Z']*[70, 'Z']
p504
sssI71
(dp505
g4
S'0.0734'
p506
sg6
S'710.0'
p507
sg8
(dp508
g10
V[71, 'y']*2
p509
ssg12
(dp510
g10
V[71, 'Z']*[71, 'Z']
p511
sssI72
(dp512
g4
S'0.0735'
p513
sg6
S'720.0'
p514
sg8
(dp515
g10
V[72, 'y']*2
p516
ssg12
(dp517
g10
V[72, 'Z']*[72, 'Z']
p518
sssI73
(dp519
g4
S'0.0738'
p520
sg6
S'730.0'
p521
sg8
(dp522
g10
V[73, 'y']*2
p523
ssg12
(dp524
g10
V[73, 'Z']*[73, 'Z']
p525
sssI74
(dp526
g4
S'0.074'
p527
sg6
S'740.0'
p528
sg8
(dp529
g10
V[74, 'y']*2
p530
ssg12
(dp531
g10
V[74, 'Z']*[74, 'Z']
p532
sssI75
(dp533
g4
S'0.0743'
p534
sg6
S'750.0'
p535
sg8
(dp536
g10
V[75, 'y']*2
p537
ssg12
(dp538
g10
V[75, 'Z']*[75, 'Z']
p539
sssI76
(dp540
g4
S'0.0746'
p541
sg6
S'760.0'
p542
sg8
(dp543
g10
V[76, 'y']*2
p544
ssg12
(dp545
g10
V[76, 'Z']*[76, 'Z']
p546
sssI77
(dp547
g4
S'0.0748'
p548
sg6
S'770.0'
p549
sg8
(dp550
g10
V[77, 'y']*2
p551
ssg12
(dp552
g10
V[77, 'Z']*[77, 'Z']
p553
sssI78
(dp554
g4
S'0.0752'
p555
sg6
S'780.0'
p556
sg8
(dp557
g10
V[78, 'y']*2
p558
ssg12
(dp559
g10
V[78, 'Z']*[78, 'Z']
p560
sssI79
(dp561
g4
S'0.0762'
p562
sg6
S'790.0'
p563
sg8
(dp564
g10
V[79, 'y']*2
p565
ssg12
(dp566
g10
V[79, 'Z']*[79, 'Z']
p567
sssI80
(dp568
g4
S'0.0758'
p569
sg6
S'800.0'
p570
sg8
(dp571
g10
V[80, 'y']*2
p572
ssg12
(dp573
g10
V[80, 'Z']*[80, 'Z']
p574
sssI81
(dp575
g4
S'0.0762'
p576
sg6
S'810.0'
p577
sg8
(dp578
g10
V[81, 'y']*2
p579
ssg12
(dp580
g10
V[81, 'Z']*[81, 'Z']
p581
sssI82
(dp582
g4
S'0.0766'
p583
sg6
S'820.0'
p584
sg8
(dp585
g10
V[82, 'y']*2
p586
ssg12
(dp587
g10
V[82, 'Z']*[82, 'Z']
p588
sssI83
(dp589
g4
S'0.0767'
p590
sg6
S'830.0'
p591
sg8
(dp592
g10
V[83, 'y']*2
p593
ssg12
(dp594
g10
V[83, 'Z']*[83, 'Z']
p595
sssI84
(dp596
g4
S'0.0775'
p597
sg6
S'840.0'
p598
sg8
(dp599
g10
V[84, 'y']*2
p600
ssg12
(dp601
g10
V[84, 'Z']*[84, 'Z']
p602
sssI85
(dp603
g4
S'0.0773'
p604
sg6
S'850.0'
p605
sg8
(dp606
g10
V[85, 'y']*2
p607
ssg12
(dp608
g10
V[85, 'Z']*[85, 'Z']
p609
sssI86
(dp610
g4
S'0.0777'
p611
sg6
S'860.0'
p612
sg8
(dp613
g10
V[86, 'y']*2
p614
ssg12
(dp615
g10
V[86, 'Z']*[86, 'Z']
p616
sssI87
(dp617
g4
S'0.0781'
p618
sg6
S'870.0'
p619
sg8
(dp620
g10
V[87, 'y']*2
p621
ssg12
(dp622
g10
V[87, 'Z']*[87, 'Z']
p623
sssI88
(dp624
g4
S'0.0783'
p625
sg6
S'880.0'
p626
sg8
(dp627
g10
V[88, 'y']*2
p628
ssg12
(dp629
g10
V[88, 'Z']*[88, 'Z']
p630
sssI89
(dp631
g4
S'0.0789'
p632
sg6
S'890.0'
p633
sg8
(dp634
g10
V[89, 'y']*2
p635
ssg12
(dp636
g10
V[89, 'Z']*[89, 'Z']
p637
sssI90
(dp638
g4
S'0.0799'
p639
sg6
S'900.0'
p640
sg8
(dp641
g10
V[90, 'y']*2
p642
ssg12
(dp643
g10
V[90, 'Z']*[90, 'Z']
p644
sssS'colors'
p645
(dp646
S'bg'
p647
(dp648
sS'fg'
p649
(dp650
ssS'reclist'
p651
(lp652
I0
aI1
aI2
aI3
aI4
aI5
aI6
aI7
aI8
aI9
aI10
aI11
aI12
aI13
aI14
aI15
aI16
aI17
aI19
aI20
aI21
aI22
aI23
aI24
aI25
aI26
aI27
aI28
aI29
aI30
aI31
aI32
aI33
aI34
aI35
aI36
aI37
aI38
aI39
aI40
aI41
aI42
aI43
aI44
aI45
aI46
aI47
aI48
aI49
aI50
aI51
aI52
aI53
aI54
aI55
aI56
aI57
aI58
aI59
aI60
aI61
aI62
aI63
aI64
aI65
aI66
aI67
aI68
aI69
aI70
aI71
aI72
aI73
aI74
aI75
aI76
aI77
aI78
aI79
aI80
aI81
aI82
aI83
aI84
aI85
aI86
aI87
aI88
aI89
aI90
aI18
asS'columnlabels'
p653
(dp654
g4
g4
sg6
g6
sg8
g8
sg12
g12
ssS'columnorder'
p655
(dp656
I0
g6
sI1
g4
sI2
g8
sI3
g12
ssS'columntypes'
p657
(dp658
g4
S'text'
p659
sg6
g659
sg8
S'text'
p660
sg12
g660
ssS'columnnames'
p661
(lp662
g6
ag4
ag8
ag12
ass.