(dp0
S'sheet1'
p1
(dp2
I0
(dp3
S''
p4
S'0'
p5
sS'a'
p6
S'6.738'
p7
sS'c'
p8
S'2.612'
p9
sS'b'
p10
S'5.043'
p11
sS'e'
p12
S'2.635'
p13
sS'd'
p14
S'2.017'
p15
sS'label'
p16
S'yellow'
p17
sS'date'
p18
S'2014-01-01 00:00:00'
p19
ssI1
(dp20
g4
S'1'
p21
sg6
S'8.032'
p22
sg8
S'2.984'
p23
sg10
S'6.03'
p24
sg12
S'3.522'
p25
sg14
S'0.287'
p26
sg16
S'blue'
p27
sg18
S'2014-01-01 01:00:00'
p28
ssI2
(dp29
g4
S'2'
p30
sg6
S'7.288'
p31
sg8
S'3.178'
p32
sg10
S'4.429'
p33
sg12
S'1.258'
p34
sg14
S'-0.523'
p35
sg16
S'orange'
p36
sg18
S'2014-01-01 02:00:00'
p37
ssI3
(dp38
g4
S'3'
p39
sg6
S'8.31'
p40
sg8
S'4.678'
p41
sg10
S'6.659'
p42
sg12
S'2.682'
p43
sg14
S'0.145'
p44
sg16
S'red'
p45
sg18
S'2014-01-01 03:00:00'
p46
ssI4
(dp47
g4
S'4'
p48
sg6
S'9.695'
p49
sg8
S'2.891'
p50
sg10
S'8.344'
p51
sg12
S'4.723'
p52
sg14
S'2.202'
p53
sg16
S'blue'
p54
sg18
S'2014-01-01 04:00:00'
p55
ssI5
(dp56
g4
S'5'
p57
sg6
S'6.006'
p58
sg8
S'3.837'
p59
sg10
S'4.946'
p60
sg12
S'4.955'
p61
sg14
S'0.237'
p62
sg16
S'blue'
p63
sg18
S'2014-01-01 05:00:00'
p64
ssI6
(dp65
g4
S'6'
p66
sg6
S'7.843'
p67
sg8
S'5.291'
p68
sg10
S'7.378'
p69
sg12
S'4.695'
p70
sg14
S'0.762'
p71
sg16
S'red'
p72
sg18
S'2014-01-01 06:00:00'
p73
ssI7
(dp74
g4
S'7'
p75
sg6
S'7.859'
p76
sg8
S'5.747'
p77
sg10
S'7.004'
p78
sg12
S'3.87'
p79
sg14
S'-1.336'
p80
sg16
S'orange'
p81
sg18
S'2014-01-01 07:00:00'
p82
ssI8
(dp83
g4
S'8'
p84
sg6
S'7.449'
p85
sg8
S'3.658'
p86
sg10
S'4.126'
p87
sg12
S'3.238'
p88
sg14
S'-0.124'
p89
sg16
S'blue'
p90
sg18
S'2014-01-01 08:00:00'
p91
ssI9
(dp92
g4
S'9'
p93
sg6
S'5.695'
p94
sg8
S'3.683'
p95
sg10
S'4.966'
p96
sg12
S'5.388'
p97
sg14
S'-0.168'
p98
sg16
S'orange'
p99
sg18
S'2014-01-01 09:00:00'
p100
ssI10
(dp101
g4
S'10'
p102
sg6
S'6.845'
p103
sg8
S'3.852'
p104
sg10
S'5.252'
p105
sg12
S'4.4'
p106
sg14
S'0.16'
p107
sg16
S'green'
p108
sg18
S'2014-01-01 10:00:00'
p109
ssI11
(dp110
g4
S'11'
p111
sg6
S'6.783'
p112
sg8
S'4.564'
p113
sg10
S'5.573'
p114
sg12
S'5.597'
p115
sg14
S'-1.874'
p116
sg16
S'orange'
p117
sg18
S'2014-01-01 11:00:00'
p118
ssI12
(dp119
g4
S'12'
p120
sg6
S'8.641'
p121
sg8
S'2.042'
p122
sg10
S'6.95'
p123
sg12
S'3.588'
p124
sg14
S'0.113'
p125
sg16
S'yellow'
p126
sg18
S'2014-01-01 12:00:00'
p127
ssI13
(dp128
g4
S'13'
p129
sg6
S'7.292'
p130
sg8
S'5.428'
p131
sg10
S'5.895'
p132
sg12
S'3.382'
p133
sg14
S'0.786'
p134
sg16
S'orange'
p135
sg18
S'2014-01-01 13:00:00'
p136
ssI14
(dp137
g4
S'14'
p138
sg6
S'8.4'
p139
sg8
S'4.589'
p140
sg10
S'5.949'
p141
sg12
S'3.525'
p142
sg14
S'0.263'
p143
sg16
S'yellow'
p144
sg18
S'2014-01-01 14:00:00'
p145
ssI15
(dp146
g4
S'15'
p147
sg6
S'7.641'
p148
sg8
S'2.652'
p149
sg10
S'6.123'
p150
sg12
S'2.811'
p151
sg14
S'0.937'
p152
sg16
S'red'
p153
sg18
S'2014-01-01 15:00:00'
p154
ssI16
(dp155
g4
S'16'
p156
sg6
S'7.587'
p157
sg8
S'5.012'
p158
sg10
S'6.569'
p159
sg12
S'5.524'
p160
sg14
S'0.723'
p161
sg16
S'orange'
p162
sg18
S'2014-01-01 16:00:00'
p163
ssI17
(dp164
g4
S'17'
p165
sg6
S'7.178'
p166
sg8
S'2.165'
p167
sg10
S'5.56'
p168
sg12
S'4.12'
p169
sg14
S'1.688'
p170
sg16
S'red'
p171
sg18
S'2014-01-01 17:00:00'
p172
ssI18
(dp173
g4
S'18'
p174
sg6
S'8.959'
p175
sg8
S'4.58'
p176
sg10
S'6.449'
p177
sg12
S'4.936'
p178
sg14
S'1.091'
p179
sg16
S'yellow'
p180
sg18
S'2014-01-01 18:00:00'
p181
ssI19
(dp182
g4
S'19'
p183
sg6
S'7.259'
p184
sg8
S'0.893'
p185
sg10
S'6.226'
p186
sg12
S'3.339'
p187
sg14
S'0.226'
p188
sg16
S'red'
p189
sg18
S'2014-01-01 19:00:00'
p190
ssI20
(dp191
g4
S'20'
p192
sg6
S'8.029'
p193
sg8
S'1.515'
p194
sg10
S'5.607'
p195
sg12
S'4.279'
p196
sg14
S'2.769'
p197
sg16
S'red'
p198
sg18
S'2014-01-01 20:00:00'
p199
ssI21
(dp200
g4
S'21'
p201
sg6
S'7.337'
p202
sg8
S'5.181'
p203
sg10
S'5.398'
p204
sg12
S'4.92'
p205
sg14
S'0.982'
p206
sg16
S'red'
p207
sg18
S'2014-01-01 21:00:00'
p208
ssI22
(dp209
g4
S'22'
p210
sg6
S'7.407'
p211
sg8
S'4.082'
p212
sg10
S'5.447'
p213
sg12
S'1.932'
p214
sg14
S'0.389'
p215
sg16
S'red'
p216
sg18
S'2014-01-01 22:00:00'
p217
ssI23
(dp218
g4
S'23'
p219
sg6
S'9.05'
p220
sg8
S'3.604'
p221
sg10
S'6.804'
p222
sg12
S'3.463'
p223
sg14
S'0.661'
p224
sg16
S'red'
p225
sg18
S'2014-01-01 23:00:00'
p226
ssI24
(dp227
g4
S'24'
p228
sg6
S'7.935'
p229
sg8
S'4.758'
p230
sg10
S'5.94'
p231
sg12
S'2.847'
p232
sg14
S'0.561'
p233
sg16
S'green'
p234
sg18
S'2014-01-02 00:00:00'
p235
ssI25
(dp236
g4
S'25'
p237
sg6
S'6.423'
p238
sg8
S'2.517'
p239
sg10
S'5.081'
p240
sg12
S'4.746'
p241
sg14
S'1.584'
p242
sg16
S'green'
p243
sg18
S'2014-01-02 01:00:00'
p244
ssI26
(dp245
g4
S'26'
p246
sg6
S'7.768'
p247
sg8
S'5.034'
p248
sg10
S'4.616'
p249
sg12
S'3.564'
p250
sg14
S'-0.796'
p251
sg16
S'orange'
p252
sg18
S'2014-01-02 02:00:00'
p253
ssI27
(dp254
g4
S'27'
p255
sg6
S'6.84'
p256
sg8
S'5.422'
p257
sg10
S'5.109'
p258
sg12
S'4.204'
p259
sg14
S'0.398'
p260
sg16
S'green'
p261
sg18
S'2014-01-02 03:00:00'
p262
ssI28
(dp263
g4
S'28'
p264
sg6
S'7.725'
p265
sg8
S'2.626'
p266
sg10
S'6.149'
p267
sg12
S'3.391'
p268
sg14
S'0.14'
p269
sg16
S'green'
p270
sg18
S'2014-01-02 04:00:00'
p271
ssI29
(dp272
g4
S'29'
p273
sg6
S'7.178'
p274
sg8
S'2.901'
p275
sg10
S'6.54'
p276
sg12
S'3.367'
p277
sg14
S'-0.018'
p278
sg16
S'blue'
p279
sg18
S'2014-01-02 05:00:00'
p280
ssI30
(dp281
g4
S'30'
p282
sg6
S'10.002'
p283
sg8
S'3.907'
p284
sg10
S'8.369'
p285
sg12
S'2.833'
p286
sg14
S'-0.953'
p287
sg16
S'red'
p288
sg18
S'2014-01-02 06:00:00'
p289
ssI31
(dp290
g4
S'31'
p291
sg6
S'7.903'
p292
sg8
S'3.411'
p293
sg10
S'6.597'
p294
sg12
S'5.276'
p295
sg14
S'0.939'
p296
sg16
S'red'
p297
sg18
S'2014-01-02 07:00:00'
p298
ssI32
(dp299
g4
S'32'
p300
sg6
S'6.665'
p301
sg8
S'2.912'
p302
sg10
S'5.388'
p303
sg12
S'5.058'
p304
sg14
S'0.524'
p305
sg16
S'red'
p306
sg18
S'2014-01-02 08:00:00'
p307
ssI33
(dp308
g4
S'33'
p309
sg6
S'9.27'
p310
sg8
S'3.054'
p311
sg10
S'6.348'
p312
sg12
S'3.982'
p313
sg14
S'-0.282'
p314
sg16
S'orange'
p315
sg18
S'2014-01-02 09:00:00'
p316
ssI34
(dp317
g4
S'34'
p318
sg6
S'8.542'
p319
sg8
S'2.006'
p320
sg10
S'6.843'
p321
sg12
S'3.961'
p322
sg14
S'0.876'
p323
sg16
S'blue'
p324
sg18
S'2014-01-02 10:00:00'
p325
ssI35
(dp326
g4
S'35'
p327
sg6
S'7.867'
p328
sg8
S'2.573'
p329
sg10
S'6.414'
p330
sg12
S'6.447'
p331
sg14
S'1.633'
p332
sg16
S'red'
p333
sg18
S'2014-01-02 11:00:00'
p334
ssI36
(dp335
g4
S'36'
p336
sg6
S'4.198'
p337
sg8
S'2.748'
p338
sg10
S'2.861'
p339
sg12
S'4.106'
p340
sg14
S'1.344'
p341
sg16
S'orange'
p342
sg18
S'2014-01-02 12:00:00'
p343
ssI37
(dp344
g4
S'37'
p345
sg6
S'8.393'
p346
sg8
S'4.95'
p347
sg10
S'7.348'
p348
sg12
S'4.369'
p349
sg14
S'2.345'
p350
sg16
S'green'
p351
sg18
S'2014-01-02 13:00:00'
p352
ssI38
(dp353
g4
S'38'
p354
sg6
S'8.441'
p355
sg8
S'4.51'
p356
sg10
S'7.152'
p357
sg12
S'5.512'
p358
sg14
S'1.957'
p359
sg16
S'blue'
p360
sg18
S'2014-01-02 14:00:00'
p361
ssI39
(dp362
g4
S'39'
p363
sg6
S'7.795'
p364
sg8
S'3.192'
p365
sg10
S'7.228'
p366
sg12
S'4.414'
p367
sg14
S'0.371'
p368
sg16
S'blue'
p369
sg18
S'2014-01-02 15:00:00'
p370
ssI40
(dp371
g4
S'40'
p372
sg6
S'7.749'
p373
sg8
S'3.221'
p374
sg10
S'6.308'
p375
sg12
S'2.859'
p376
sg14
S'0.837'
p377
sg16
S'yellow'
p378
sg18
S'2014-01-02 16:00:00'
p379
ssI41
(dp380
g4
S'41'
p381
sg6
S'7.945'
p382
sg8
S'1.764'
p383
sg10
S'7.008'
p384
sg12
S'3.393'
p385
sg14
S'-0.987'
p386
sg16
S'orange'
p387
sg18
S'2014-01-02 17:00:00'
p388
ssI42
(dp389
g4
S'42'
p390
sg6
S'8.169'
p391
sg8
S'5.045'
p392
sg10
S'5.427'
p393
sg12
S'3.992'
p394
sg14
S'1.493'
p395
sg16
S'blue'
p396
sg18
S'2014-01-02 18:00:00'
p397
ssI43
(dp398
g4
S'43'
p399
sg6
S'8.846'
p400
sg8
S'1.901'
p401
sg10
S'6.057'
p402
sg12
S'4.769'
p403
sg14
S'0.239'
p404
sg16
S'yellow'
p405
sg18
S'2014-01-02 19:00:00'
p406
ssI44
(dp407
g4
S'44'
p408
sg6
S'7.789'
p409
sg8
S'3.376'
p410
sg10
S'4.459'
p411
sg12
S'3.704'
p412
sg14
S'1.633'
p413
sg16
S'green'
p414
sg18
S'2014-01-02 20:00:00'
p415
ssI45
(dp416
g4
S'45'
p417
sg6
S'7.897'
p418
sg8
S'4.017'
p419
sg10
S'5.153'
p420
sg12
S'3.592'
p421
sg14
S'-0.552'
p422
sg16
S'green'
p423
sg18
S'2014-01-02 21:00:00'
p424
ssI46
(dp425
g4
S'46'
p426
sg6
S'10.306'
p427
sg8
S'5.041'
p428
sg10
S'7.73'
p429
sg12
S'5.236'
p430
sg14
S'2.106'
p431
sg16
S'orange'
p432
sg18
S'2014-01-02 22:00:00'
p433
ssI47
(dp434
g4
S'47'
p435
sg6
S'8.557'
p436
sg8
S'4.676'
p437
sg10
S'7.773'
p438
sg12
S'4.301'
p439
sg14
S'-0.288'
p440
sg16
S'orange'
p441
sg18
S'2014-01-02 23:00:00'
p442
ssI48
(dp443
g4
S'48'
p444
sg6
S'8.585'
p445
sg8
S'2.363'
p446
sg10
S'7.013'
p447
sg12
S'2.995'
p448
sg14
S'-0.726'
p449
sg16
S'yellow'
p450
sg18
S'2014-01-03 00:00:00'
p451
ssI49
(dp452
g4
S'49'
p453
sg6
S'7.905'
p454
sg8
S'4.01'
p455
sg10
S'5.825'
p456
sg12
S'3.518'
p457
sg14
S'-2.268'
p458
sg16
S'orange'
p459
sg18
S'2014-01-03 01:00:00'
p460
ssI50
(dp461
g4
S'50'
p462
sg6
S'6.603'
p463
sg8
S'2.315'
p464
sg10
S'4.951'
p465
sg12
S'4.69'
p466
sg14
S'-0.463'
p467
sg16
S'red'
p468
sg18
S'2014-01-03 02:00:00'
p469
ssI51
(dp470
g4
S'51'
p471
sg6
S'7.929'
p472
sg8
S'2.472'
p473
sg10
S'6.701'
p474
sg12
S'2.965'
p475
sg14
S'1.136'
p476
sg16
S'green'
p477
sg18
S'2014-01-03 03:00:00'
p478
ssI52
(dp479
g4
S'52'
p480
sg6
S'6.805'
p481
sg8
S'5.054'
p482
sg10
S'5.487'
p483
sg12
S'4.521'
p484
sg14
S'1.16'
p485
sg16
S'yellow'
p486
sg18
S'2014-01-03 04:00:00'
p487
ssI53
(dp488
g4
S'53'
p489
sg6
S'8.43'
p490
sg8
S'3.106'
p491
sg10
S'8.108'
p492
sg12
S'1.844'
p493
sg14
S'1.276'
p494
sg16
S'red'
p495
sg18
S'2014-01-03 05:00:00'
p496
ssI54
(dp497
g4
S'54'
p498
sg6
S'7.609'
p499
sg8
S'4.55'
p500
sg10
S'5.536'
p501
sg12
S'3.257'
p502
sg14
S'1.356'
p503
sg16
S'red'
p504
sg18
S'2014-01-03 06:00:00'
p505
ssI55
(dp506
g4
S'55'
p507
sg6
S'7.445'
p508
sg8
S'4.541'
p509
sg10
S'5.169'
p510
sg12
S'4.498'
p511
sg14
S'0.979'
p512
sg16
S'orange'
p513
sg18
S'2014-01-03 07:00:00'
p514
ssI56
(dp515
g4
S'56'
p516
sg6
S'7.165'
p517
sg8
S'3.899'
p518
sg10
S'6.188'
p519
sg12
S'3.784'
p520
sg14
S'2.328'
p521
sg16
S'blue'
p522
sg18
S'2014-01-03 08:00:00'
p523
ssI57
(dp524
g4
S'57'
p525
sg6
S'6.636'
p526
sg8
S'3.617'
p527
sg10
S'4.825'
p528
sg12
S'4.687'
p529
sg14
S'-0.169'
p530
sg16
S'blue'
p531
sg18
S'2014-01-03 09:00:00'
p532
ssI58
(dp533
g4
S'58'
p534
sg6
S'6.644'
p535
sg8
S'3.379'
p536
sg10
S'3.661'
p537
sg12
S'4.233'
p538
sg14
S'2.395'
p539
sg16
S'blue'
p540
sg18
S'2014-01-03 10:00:00'
p541
ssI59
(dp542
g4
S'59'
p543
sg6
S'7.71'
p544
sg8
S'5.575'
p545
sg10
S'5.05'
p546
sg12
S'2.946'
p547
sg14
S'0.959'
p548
sg16
S'orange'
p549
sg18
S'2014-01-03 11:00:00'
p550
ssI60
(dp551
g4
S'60'
p552
sg6
S'7.303'
p553
sg8
S'3.199'
p554
sg10
S'5.109'
p555
sg12
S'4.689'
p556
sg14
S'1.27'
p557
sg16
S'orange'
p558
sg18
S'2014-01-03 12:00:00'
p559
ssI61
(dp560
g4
S'61'
p561
sg6
S'6.589'
p562
sg8
S'3.018'
p563
sg10
S'4.904'
p564
sg12
S'3.081'
p565
sg14
S'-0.047'
p566
sg16
S'blue'
p567
sg18
S'2014-01-03 13:00:00'
p568
ssI62
(dp569
g4
S'62'
p570
sg6
S'7.886'
p571
sg8
S'2.885'
p572
sg10
S'5.581'
p573
sg12
S'2.902'
p574
sg14
S'0.418'
p575
sg16
S'blue'
p576
sg18
S'2014-01-03 14:00:00'
p577
ssI63
(dp578
g4
S'63'
p579
sg6
S'6.581'
p580
sg8
S'4.656'
p581
sg10
S'5.977'
p582
sg12
S'2.706'
p583
sg14
S'-0.001'
p584
sg16
S'blue'
p585
sg18
S'2014-01-03 15:00:00'
p586
ssI64
(dp587
g4
S'64'
p588
sg6
S'9.583'
p589
sg8
S'4.092'
p590
sg10
S'5.347'
p591
sg12
S'3.772'
p592
sg14
S'0.509'
p593
sg16
S'green'
p594
sg18
S'2014-01-03 16:00:00'
p595
ssI65
(dp596
g4
S'65'
p597
sg6
S'9.316'
p598
sg8
S'2.235'
p599
sg10
S'7.569'
p600
sg12
S'1.785'
p601
sg14
S'0.828'
p602
sg16
S'blue'
p603
sg18
S'2014-01-03 17:00:00'
p604
ssI66
(dp605
g4
S'66'
p606
sg6
S'4.893'
p607
sg8
S'3.994'
p608
sg10
S'4.032'
p609
sg12
S'4.78'
p610
sg14
S'1.396'
p611
sg16
S'yellow'
p612
sg18
S'2014-01-03 18:00:00'
p613
ssI67
(dp614
g4
S'67'
p615
sg6
S'10.04'
p616
sg8
S'5.787'
p617
sg10
S'7.486'
p618
sg12
S'3.325'
p619
sg14
S'-0.045'
p620
sg16
S'blue'
p621
sg18
S'2014-01-03 19:00:00'
p622
ssI68
(dp623
g4
S'68'
p624
sg6
S'9.517'
p625
sg8
S'3.019'
p626
sg10
S'7.523'
p627
sg12
S'4.287'
p628
sg14
S'-1.264'
p629
sg16
S'yellow'
p630
sg18
S'2014-01-03 20:00:00'
p631
ssI69
(dp632
g4
S'69'
p633
sg6
S'7.439'
p634
sg8
S'5.459'
p635
sg10
S'5.264'
p636
sg12
S'4.0'
p637
sg14
S'-0.457'
p638
sg16
S'red'
p639
sg18
S'2014-01-03 21:00:00'
p640
ssI70
(dp641
g4
S'70'
p642
sg6
S'6.771'
p643
sg8
S'6.636'
p644
sg10
S'5.084'
p645
sg12
S'5.75'
p646
sg14
S'1.204'
p647
sg16
S'green'
p648
sg18
S'2014-01-03 22:00:00'
p649
ssI71
(dp650
g4
S'71'
p651
sg6
S'9.512'
p652
sg8
S'3.832'
p653
sg10
S'7.743'
p654
sg12
S'5.188'
p655
sg14
S'0.005'
p656
sg16
S'blue'
p657
sg18
S'2014-01-03 23:00:00'
p658
ssI72
(dp659
g4
S'72'
p660
sg6
S'6.802'
p661
sg8
S'5.138'
p662
sg10
S'4.36'
p663
sg12
S'5.244'
p664
sg14
S'-0.086'
p665
sg16
S'red'
p666
sg18
S'2014-01-04 00:00:00'
p667
ssI73
(dp668
g4
S'73'
p669
sg6
S'6.614'
p670
sg8
S'4.138'
p671
sg10
S'5.369'
p672
sg12
S'4.898'
p673
sg14
S'0.688'
p674
sg16
S'blue'
p675
sg18
S'2014-01-04 01:00:00'
p676
ssI74
(dp677
g4
S'74'
p678
sg6
S'8.479'
p679
sg8
S'2.066'
p680
sg10
S'7.77'
p681
sg12
S'4.666'
p682
sg14
S'0.893'
p683
sg16
S'green'
p684
sg18
S'2014-01-04 02:00:00'
p685
ssI75
(dp686
g4
S'75'
p687
sg6
S'5.85'
p688
sg8
S'5.45'
p689
sg10
S'5.901'
p690
sg12
S'3.969'
p691
sg14
S'2.254'
p692
sg16
S'orange'
p693
sg18
S'2014-01-04 03:00:00'
p694
ssI76
(dp695
g4
S'76'
p696
sg6
S'7.047'
p697
sg8
S'5.003'
p698
sg10
S'5.704'
p699
sg12
S'2.152'
p700
sg14
S'-0.021'
p701
sg16
S'orange'
p702
sg18
S'2014-01-04 04:00:00'
p703
ssI77
(dp704
g4
S'77'
p705
sg6
S'8.576'
p706
sg8
S'4.797'
p707
sg10
S'7.246'
p708
sg12
S'3.485'
p709
sg14
S'0.625'
p710
sg16
S'orange'
p711
sg18
S'2014-01-04 05:00:00'
p712
ssI78
(dp713
g4
S'78'
p714
sg6
S'6.993'
p715
sg8
S'5.132'
p716
sg10
S'4.851'
p717
sg12
S'5.123'
p718
sg14
S'1.479'
p719
sg16
S'green'
p720
sg18
S'2014-01-04 06:00:00'
p721
ssI79
(dp722
g4
S'79'
p723
sg6
S'9.527'
p724
sg8
S'2.684'
p725
sg10
S'7.664'
p726
sg12
S'3.464'
p727
sg14
S'0.026'
p728
sg16
S'green'
p729
sg18
S'2014-01-04 07:00:00'
p730
ssI80
(dp731
g4
S'80'
p732
sg6
S'7.449'
p733
sg8
S'5.528'
p734
sg10
S'5.725'
p735
sg12
S'3.169'
p736
sg14
S'1.142'
p737
sg16
S'orange'
p738
sg18
S'2014-01-04 08:00:00'
p739
ssI81
(dp740
g4
S'81'
p741
sg6
S'7.091'
p742
sg8
S'5.705'
p743
sg10
S'6.308'
p744
sg12
S'4.118'
p745
sg14
S'1.162'
p746
sg16
S'green'
p747
sg18
S'2014-01-04 09:00:00'
p748
ssI82
(dp749
g4
S'82'
p750
sg6
S'6.995'
p751
sg8
S'4.315'
p752
sg10
S'4.714'
p753
sg12
S'5.027'
p754
sg14
S'-1.706'
p755
sg16
S'orange'
p756
sg18
S'2014-01-04 10:00:00'
p757
ssI83
(dp758
g4
S'83'
p759
sg6
S'7.249'
p760
sg8
S'4.53'
p761
sg10
S'5.5'
p762
sg12
S'4.585'
p763
sg14
S'0.246'
p764
sg16
S'yellow'
p765
sg18
S'2014-01-04 11:00:00'
p766
ssI84
(dp767
g4
S'84'
p768
sg6
S'7.329'
p769
sg8
S'2.355'
p770
sg10
S'6.485'
p771
sg12
S'3.964'
p772
sg14
S'-0.252'
p773
sg16
S'yellow'
p774
sg18
S'2014-01-04 12:00:00'
p775
ssI85
(dp776
g4
S'85'
p777
sg6
S'7.521'
p778
sg8
S'4.085'
p779
sg10
S'6.716'
p780
sg12
S'3.097'
p781
sg14
S'2.322'
p782
sg16
S'green'
p783
sg18
S'2014-01-04 13:00:00'
p784
ssI86
(dp785
g4
S'86'
p786
sg6
S'8.732'
p787
sg8
S'5.921'
p788
sg10
S'6.007'
p789
sg12
S'4.331'
p790
sg14
S'0.259'
p791
sg16
S'orange'
p792
sg18
S'2014-01-04 14:00:00'
p793
ssI87
(dp794
g4
S'87'
p795
sg6
S'7.544'
p796
sg8
S'5.896'
p797
sg10
S'6.373'
p798
sg12
S'4.473'
p799
sg14
S'-0.534'
p800
sg16
S'yellow'
p801
sg18
S'2014-01-04 15:00:00'
p802
ssI88
(dp803
g4
S'88'
p804
sg6
S'6.338'
p805
sg8
S'3.497'
p806
sg10
S'4.107'
p807
sg12
S'4.165'
p808
sg14
S'1.026'
p809
sg16
S'green'
p810
sg18
S'2014-01-04 16:00:00'
p811
ssI89
(dp812
g4
S'89'
p813
sg6
S'8.657'
p814
sg8
S'1.086'
p815
sg10
S'7.452'
p816
sg12
S'2.963'
p817
sg14
S'2.062'
p818
sg16
S'green'
p819
sg18
S'2014-01-04 17:00:00'
p820
ssI90
(dp821
g4
S'90'
p822
sg6
S'7.364'
p823
sg8
S'3.611'
p824
sg10
S'6.637'
p825
sg12
S'3.595'
p826
sg14
S'2.138'
p827
sg16
S'green'
p828
sg18
S'2014-01-04 18:00:00'
p829
ssI91
(dp830
g4
S'91'
p831
sg6
S'8.325'
p832
sg8
S'3.212'
p833
sg10
S'7.892'
p834
sg12
S'5.298'
p835
sg14
S'-0.256'
p836
sg16
S'yellow'
p837
sg18
S'2014-01-04 19:00:00'
p838
ssI92
(dp839
g4
S'92'
p840
sg6
S'6.754'
p841
sg8
S'3.63'
p842
sg10
S'4.602'
p843
sg12
S'3.915'
p844
sg14
S'1.475'
p845
sg16
S'green'
p846
sg18
S'2014-01-04 20:00:00'
p847
ssI93
(dp848
g4
S'93'
p849
sg6
S'8.265'
p850
sg8
S'2.722'
p851
sg10
S'7.428'
p852
sg12
S'3.234'
p853
sg14
S'-0.515'
p854
sg16
S'blue'
p855
sg18
S'2014-01-04 21:00:00'
p856
ssI94
(dp857
g4
S'94'
p858
sg6
S'7.748'
p859
sg8
S'5.008'
p860
sg10
S'7.443'
p861
sg12
S'3.586'
p862
sg14
S'0.083'
p863
sg16
S'orange'
p864
sg18
S'2014-01-04 22:00:00'
p865
ssI95
(dp866
g4
S'95'
p867
sg6
S'7.796'
p868
sg8
S'5.577'
p869
sg10
S'6.815'
p870
sg12
S'4.411'
p871
sg14
S'0.844'
p872
sg16
S'green'
p873
sg18
S'2014-01-04 23:00:00'
p874
ssI96
(dp875
g4
S'96'
p876
sg6
S'9.012'
p877
sg8
S'4.484'
p878
sg10
S'5.158'
p879
sg12
S'5.304'
p880
sg14
S'0.216'
p881
sg16
S'blue'
p882
sg18
S'2014-01-05 00:00:00'
p883
ssI97
(dp884
g4
S'97'
p885
sg6
S'8.59'
p886
sg8
S'3.517'
p887
sg10
S'7.148'
p888
sg12
S'2.118'
p889
sg14
S'0.092'
p890
sg16
S'blue'
p891
sg18
S'2014-01-05 01:00:00'
p892
ssI98
(dp893
g4
S'98'
p894
sg6
S'5.116'
p895
sg8
S'2.995'
p896
sg10
S'3.573'
p897
sg12
S'2.538'
p898
sg14
S'-0.204'
p899
sg16
S'orange'
p900
sg18
S'2014-01-05 02:00:00'
p901
ssI99
(dp902
g4
S'99'
p903
sg6
S'8.474'
p904
sg8
S'3.239'
p905
sg10
S'7.796'
p906
sg12
S'3.819'
p907
sg14
S'-0.066'
p908
sg16
S'yellow'
p909
sg18
S'2014-01-05 03:00:00'
p910
ssI100
(dp911
g4
S'100'
p912
sg6
S'7.55'
p913
sg8
S'3.402'
p914
sg10
S'6.823'
p915
sg12
S'4.993'
p916
sg14
S'1.364'
p917
sg16
S'red'
p918
sg18
S'2014-01-05 04:00:00'
p919
ssI101
(dp920
g4
S'101'
p921
sg6
S'6.848'
p922
sg8
S'4.867'
p923
sg10
S'6.72'
p924
sg12
S'4.414'
p925
sg14
S'-0.22'
p926
sg16
S'blue'
p927
sg18
S'2014-01-05 05:00:00'
p928
ssI102
(dp929
g4
S'102'
p930
sg6
S'6.816'
p931
sg8
S'5.094'
p932
sg10
S'5.81'
p933
sg12
S'4.059'
p934
sg14
S'1.09'
p935
sg16
S'green'
p936
sg18
S'2014-01-05 06:00:00'
p937
ssI103
(dp938
g4
S'103'
p939
sg6
S'7.634'
p940
sg8
S'3.076'
p941
sg10
S'4.769'
p942
sg12
S'4.352'
p943
sg14
S'0.573'
p944
sg16
S'red'
p945
sg18
S'2014-01-05 07:00:00'
p946
ssI104
(dp947
g4
S'104'
p948
sg6
S'7.116'
p949
sg8
S'4.249'
p950
sg10
S'4.883'
p951
sg12
S'3.592'
p952
sg14
S'0.153'
p953
sg16
S'red'
p954
sg18
S'2014-01-05 08:00:00'
p955
ssI105
(dp956
g4
S'105'
p957
sg6
S'7.295'
p958
sg8
S'1.988'
p959
sg10
S'6.069'
p960
sg12
S'5.783'
p961
sg14
S'1.12'
p962
sg16
S'blue'
p963
sg18
S'2014-01-05 09:00:00'
p964
ssI106
(dp965
g4
S'106'
p966
sg6
S'7.097'
p967
sg8
S'4.07'
p968
sg10
S'5.082'
p969
sg12
S'5.32'
p970
sg14
S'0.863'
p971
sg16
S'red'
p972
sg18
S'2014-01-05 10:00:00'
p973
ssI107
(dp974
g4
S'107'
p975
sg6
S'7.748'
p976
sg8
S'3.835'
p977
sg10
S'5.82'
p978
sg12
S'1.99'
p979
sg14
S'1.692'
p980
sg16
S'blue'
p981
sg18
S'2014-01-05 11:00:00'
p982
ssI108
(dp983
g4
S'108'
p984
sg6
S'8.839'
p985
sg8
S'1.71'
p986
sg10
S'6.106'
p987
sg12
S'4.084'
p988
sg14
S'-0.376'
p989
sg16
S'yellow'
p990
sg18
S'2014-01-05 12:00:00'
p991
ssI109
(dp992
g4
S'109'
p993
sg6
S'7.328'
p994
sg8
S'2.621'
p995
sg10
S'6.031'
p996
sg12
S'4.51'
p997
sg14
S'0.513'
p998
sg16
S'green'
p999
sg18
S'2014-01-05 13:00:00'
p1000
ssI110
(dp1001
g4
S'110'
p1002
sg6
S'9.744'
p1003
sg8
S'2.445'
p1004
sg10
S'7.413'
p1005
sg12
S'3.851'
p1006
sg14
S'0.696'
p1007
sg16
S'blue'
p1008
sg18
S'2014-01-05 14:00:00'
p1009
ssI111
(dp1010
g4
S'111'
p1011
sg6
S'7.993'
p1012
sg8
S'3.778'
p1013
sg10
S'5.49'
p1014
sg12
S'5.037'
p1015
sg14
S'0.875'
p1016
sg16
S'blue'
p1017
sg18
S'2014-01-05 15:00:00'
p1018
ssI112
(dp1019
g4
S'112'
p1020
sg6
S'7.408'
p1021
sg8
S'4.967'
p1022
sg10
S'6.515'
p1023
sg12
S'6.607'
p1024
sg14
S'-0.351'
p1025
sg16
S'green'
p1026
sg18
S'2014-01-05 16:00:00'
p1027
ssI113
(dp1028
g4
S'113'
p1029
sg6
S'7.374'
p1030
sg8
S'3.497'
p1031
sg10
S'6.093'
p1032
sg12
S'2.712'
p1033
sg14
S'-0.598'
p1034
sg16
S'blue'
p1035
sg18
S'2014-01-05 17:00:00'
p1036
ssI114
(dp1037
g4
S'114'
p1038
sg6
S'5.819'
p1039
sg8
S'3.871'
p1040
sg10
S'5.502'
p1041
sg12
S'4.299'
p1042
sg14
S'0.997'
p1043
sg16
S'red'
p1044
sg18
S'2014-01-05 18:00:00'
p1045
ssI115
(dp1046
g4
S'115'
p1047
sg6
S'7.492'
p1048
sg8
S'3.169'
p1049
sg10
S'6.481'
p1050
sg12
S'2.8'
p1051
sg14
S'1.2'
p1052
sg16
S'blue'
p1053
sg18
S'2014-01-05 19:00:00'
p1054
ssI116
(dp1055
g4
S'116'
p1056
sg6
S'7.163'
p1057
sg8
S'5.0'
p1058
sg10
S'6.593'
p1059
sg12
S'3.094'
p1060
sg14
S'0.215'
p1061
sg16
S'orange'
p1062
sg18
S'2014-01-05 20:00:00'
p1063
ssI117
(dp1064
g4
S'117'
p1065
sg6
S'7.552'
p1066
sg8
S'2.757'
p1067
sg10
S'6.218'
p1068
sg12
S'4.418'
p1069
sg14
S'-0.778'
p1070
sg16
S'yellow'
p1071
sg18
S'2014-01-05 21:00:00'
p1072
ssI118
(dp1073
g4
S'118'
p1074
sg6
S'6.351'
p1075
sg8
S'2.378'
p1076
sg10
S'5.52'
p1077
sg12
S'3.218'
p1078
sg14
S'1.026'
p1079
sg16
S'green'
p1080
sg18
S'2014-01-05 22:00:00'
p1081
ssI119
(dp1082
g4
S'119'
p1083
sg6
S'7.371'
p1084
sg8
S'1.834'
p1085
sg10
S'4.919'
p1086
sg12
S'5.588'
p1087
sg14
S'1.567'
p1088
sg16
S'yellow'
p1089
sg18
S'2014-01-05 23:00:00'
p1090
ssI120
(dp1091
g4
S'120'
p1092
sg6
S'5.862'
p1093
sg8
S'3.944'
p1094
sg10
S'4.579'
p1095
sg12
S'3.494'
p1096
sg14
S'1.367'
p1097
sg16
S'green'
p1098
sg18
S'2014-01-06 00:00:00'
p1099
ssI121
(dp1100
g4
S'121'
p1101
sg6
S'6.376'
p1102
sg8
S'3.338'
p1103
sg10
S'5.839'
p1104
sg12
S'4.729'
p1105
sg14
S'1.232'
p1106
sg16
S'yellow'
p1107
sg18
S'2014-01-06 01:00:00'
p1108
ssI122
(dp1109
g4
S'122'
p1110
sg6
S'5.533'
p1111
sg8
S'4.417'
p1112
sg10
S'3.191'
p1113
sg12
S'2.799'
p1114
sg14
S'0.656'
p1115
sg16
S'blue'
p1116
sg18
S'2014-01-06 02:00:00'
p1117
ssI123
(dp1118
g4
S'123'
p1119
sg6
S'7.174'
p1120
sg8
S'3.32'
p1121
sg10
S'6.207'
p1122
sg12
S'3.769'
p1123
sg14
S'-1.071'
p1124
sg16
S'green'
p1125
sg18
S'2014-01-06 03:00:00'
p1126
ssI124
(dp1127
g4
S'124'
p1128
sg6
S'7.564'
p1129
sg8
S'3.259'
p1130
sg10
S'4.809'
p1131
sg12
S'1.8'
p1132
sg14
S'1.256'
p1133
sg16
S'green'
p1134
sg18
S'2014-01-06 04:00:00'
p1135
ssI125
(dp1136
g4
S'125'
p1137
sg6
S'8.969'
p1138
sg8
S'2.586'
p1139
sg10
S'7.182'
p1140
sg12
S'1.719'
p1141
sg14
S'1.206'
p1142
sg16
S'yellow'
p1143
sg18
S'2014-01-06 05:00:00'
p1144
ssI126
(dp1145
g4
S'126'
p1146
sg6
S'9.061'
p1147
sg8
S'3.434'
p1148
sg10
S'7.906'
p1149
sg12
S'4.288'
p1150
sg14
S'0.083'
p1151
sg16
S'orange'
p1152
sg18
S'2014-01-06 06:00:00'
p1153
ssI127
(dp1154
g4
S'127'
p1155
sg6
S'7.606'
p1156
sg8
S'3.907'
p1157
sg10
S'4.896'
p1158
sg12
S'4.041'
p1159
sg14
S'1.483'
p1160
sg16
S'green'
p1161
sg18
S'2014-01-06 07:00:00'
p1162
ssI128
(dp1163
g4
S'128'
p1164
sg6
S'8.472'
p1165
sg8
S'3.498'
p1166
sg10
S'5.498'
p1167
sg12
S'4.107'
p1168
sg14
S'0.774'
p1169
sg16
S'green'
p1170
sg18
S'2014-01-06 08:00:00'
p1171
ssI129
(dp1172
g4
S'129'
p1173
sg6
S'6.451'
p1174
sg8
S'4.36'
p1175
sg10
S'6.511'
p1176
sg12
S'4.712'
p1177
sg14
S'0.708'
p1178
sg16
S'blue'
p1179
sg18
S'2014-01-06 09:00:00'
p1180
ssI130
(dp1181
g4
S'130'
p1182
sg6
S'6.135'
p1183
sg8
S'3.487'
p1184
sg10
S'4.593'
p1185
sg12
S'4.28'
p1186
sg14
S'-0.506'
p1187
sg16
S'blue'
p1188
sg18
S'2014-01-06 10:00:00'
p1189
ssI131
(dp1190
g4
S'131'
p1191
sg6
S'5.986'
p1192
sg8
S'2.632'
p1193
sg10
S'5.677'
p1194
sg12
S'2.779'
p1195
sg14
S'1.479'
p1196
sg16
S'orange'
p1197
sg18
S'2014-01-06 11:00:00'
p1198
ssI132
(dp1199
g4
S'132'
p1200
sg6
S'8.926'
p1201
sg8
S'5.114'
p1202
sg10
S'8.211'
p1203
sg12
S'4.118'
p1204
sg14
S'0.489'
p1205
sg16
S'yellow'
p1206
sg18
S'2014-01-06 12:00:00'
p1207
ssI133
(dp1208
g4
S'133'
p1209
sg6
S'5.497'
p1210
sg8
S'4.031'
p1211
sg10
S'4.044'
p1212
sg12
S'3.0'
p1213
sg14
S'0.252'
p1214
sg16
S'blue'
p1215
sg18
S'2014-01-06 13:00:00'
p1216
ssI134
(dp1217
g4
S'134'
p1218
sg6
S'6.528'
p1219
sg8
S'2.736'
p1220
sg10
S'4.375'
p1221
sg12
S'4.629'
p1222
sg14
S'0.497'
p1223
sg16
S'green'
p1224
sg18
S'2014-01-06 14:00:00'
p1225
ssI135
(dp1226
g4
S'135'
p1227
sg6
S'7.279'
p1228
sg8
S'2.298'
p1229
sg10
S'3.874'
p1230
sg12
S'3.939'
p1231
sg14
S'1.013'
p1232
sg16
S'blue'
p1233
sg18
S'2014-01-06 15:00:00'
p1234
ssI136
(dp1235
g4
S'136'
p1236
sg6
S'6.042'
p1237
sg8
S'2.792'
p1238
sg10
S'3.449'
p1239
sg12
S'4.504'
p1240
sg14
S'1.214'
p1241
sg16
S'red'
p1242
sg18
S'2014-01-06 16:00:00'
p1243
ssI137
(dp1244
g4
S'137'
p1245
sg6
S'8.334'
p1246
sg8
S'1.588'
p1247
sg10
S'5.436'
p1248
sg12
S'3.871'
p1249
sg14
S'0.64'
p1250
sg16
S'red'
p1251
sg18
S'2014-01-06 17:00:00'
p1252
ssI138
(dp1253
g4
S'138'
p1254
sg6
S'7.639'
p1255
sg8
S'3.157'
p1256
sg10
S'5.39'
p1257
sg12
S'3.762'
p1258
sg14
S'1.501'
p1259
sg16
S'red'
p1260
sg18
S'2014-01-06 18:00:00'
p1261
ssI139
(dp1262
g4
S'139'
p1263
sg6
S'7.267'
p1264
sg8
S'3.367'
p1265
sg10
S'6.83'
p1266
sg12
S'4.22'
p1267
sg14
S'-0.621'
p1268
sg16
S'orange'
p1269
sg18
S'2014-01-06 19:00:00'
p1270
ssI140
(dp1271
g4
S'140'
p1272
sg6
S'5.968'
p1273
sg8
S'3.982'
p1274
sg10
S'4.68'
p1275
sg12
S'2.016'
p1276
sg14
S'0.109'
p1277
sg16
S'orange'
p1278
sg18
S'2014-01-06 20:00:00'
p1279
ssI141
(dp1280
g4
S'141'
p1281
sg6
S'7.853'
p1282
sg8
S'2.416'
p1283
sg10
S'6.665'
p1284
sg12
S'3.791'
p1285
sg14
S'-0.471'
p1286
sg16
S'red'
p1287
sg18
S'2014-01-06 21:00:00'
p1288
ssI142
(dp1289
g4
S'142'
p1290
sg6
S'8.335'
p1291
sg8
S'4.501'
p1292
sg10
S'6.662'
p1293
sg12
S'2.201'
p1294
sg14
S'2.302'
p1295
sg16
S'orange'
p1296
sg18
S'2014-01-06 22:00:00'
p1297
ssI143
(dp1298
g4
S'143'
p1299
sg6
S'5.702'
p1300
sg8
S'4.665'
p1301
sg10
S'4.555'
p1302
sg12
S'3.89'
p1303
sg14
S'1.132'
p1304
sg16
S'blue'
p1305
sg18
S'2014-01-06 23:00:00'
p1306
ssI144
(dp1307
g4
S'144'
p1308
sg6
S'7.131'
p1309
sg8
S'2.03'
p1310
sg10
S'5.381'
p1311
sg12
S'4.066'
p1312
sg14
S'-1.179'
p1313
sg16
S'red'
p1314
sg18
S'2014-01-07 00:00:00'
p1315
ssI145
(dp1316
g4
S'145'
p1317
sg6
S'7.788'
p1318
sg8
S'3.47'
p1319
sg10
S'6.072'
p1320
sg12
S'3.045'
p1321
sg14
S'1.307'
p1322
sg16
S'yellow'
p1323
sg18
S'2014-01-07 01:00:00'
p1324
ssI146
(dp1325
g4
S'146'
p1326
sg6
S'7.292'
p1327
sg8
S'3.971'
p1328
sg10
S'5.829'
p1329
sg12
S'3.535'
p1330
sg14
S'-0.696'
p1331
sg16
S'green'
p1332
sg18
S'2014-01-07 02:00:00'
p1333
ssI147
(dp1334
g4
S'147'
p1335
sg6
S'6.365'
p1336
sg8
S'2.032'
p1337
sg10
S'5.77'
p1338
sg12
S'3.84'
p1339
sg14
S'1.256'
p1340
sg16
S'blue'
p1341
sg18
S'2014-01-07 03:00:00'
p1342
ssI148
(dp1343
g4
S'148'
p1344
sg6
S'7.404'
p1345
sg8
S'4.429'
p1346
sg10
S'7.718'
p1347
sg12
S'4.116'
p1348
sg14
S'2.555'
p1349
sg16
S'blue'
p1350
sg18
S'2014-01-07 04:00:00'
p1351
ssI149
(dp1352
g4
S'149'
p1353
sg6
S'8.248'
p1354
sg8
S'4.559'
p1355
sg10
S'7.82'
p1356
sg12
S'2.79'
p1357
sg14
S'-0.155'
p1358
sg16
S'yellow'
p1359
sg18
S'2014-01-07 05:00:00'
p1360
ssI150
(dp1361
g4
S'150'
p1362
sg6
S'8.344'
p1363
sg8
S'3.264'
p1364
sg10
S'6.045'
p1365
sg12
S'4.549'
p1366
sg14
S'0.802'
p1367
sg16
S'blue'
p1368
sg18
S'2014-01-07 06:00:00'
p1369
ssI151
(dp1370
g4
S'151'
p1371
sg6
S'8.629'
p1372
sg8
S'3.471'
p1373
sg10
S'7.655'
p1374
sg12
S'3.129'
p1375
sg14
S'-0.192'
p1376
sg16
S'red'
p1377
sg18
S'2014-01-07 07:00:00'
p1378
ssI152
(dp1379
g4
S'152'
p1380
sg6
S'7.185'
p1381
sg8
S'2.955'
p1382
sg10
S'5.849'
p1383
sg12
S'4.608'
p1384
sg14
S'-0.292'
p1385
sg16
S'orange'
p1386
sg18
S'2014-01-07 08:00:00'
p1387
ssI153
(dp1388
g4
S'153'
p1389
sg6
S'6.585'
p1390
sg8
S'5.843'
p1391
sg10
S'4.586'
p1392
sg12
S'3.809'
p1393
sg14
S'0.295'
p1394
sg16
S'orange'
p1395
sg18
S'2014-01-07 09:00:00'
p1396
ssI154
(dp1397
g4
S'154'
p1398
sg6
S'8.439'
p1399
sg8
S'2.213'
p1400
sg10
S'5.925'
p1401
sg12
S'3.648'
p1402
sg14
S'-0.27'
p1403
sg16
S'green'
p1404
sg18
S'2014-01-07 10:00:00'
p1405
ssI155
(dp1406
g4
S'155'
p1407
sg6
S'7.215'
p1408
sg8
S'1.881'
p1409
sg10
S'6.338'
p1410
sg12
S'4.304'
p1411
sg14
S'-0.681'
p1412
sg16
S'green'
p1413
sg18
S'2014-01-07 11:00:00'
p1414
ssI156
(dp1415
g4
S'156'
p1416
sg6
S'6.626'
p1417
sg8
S'4.208'
p1418
sg10
S'5.205'
p1419
sg12
S'5.029'
p1420
sg14
S'0.044'
p1421
sg16
S'orange'
p1422
sg18
S'2014-01-07 12:00:00'
p1423
ssI157
(dp1424
g4
S'157'
p1425
sg6
S'7.565'
p1426
sg8
S'4.327'
p1427
sg10
S'5.67'
p1428
sg12
S'3.979'
p1429
sg14
S'-0.622'
p1430
sg16
S'red'
p1431
sg18
S'2014-01-07 13:00:00'
p1432
ssI158
(dp1433
g4
S'158'
p1434
sg6
S'8.079'
p1435
sg8
S'3.888'
p1436
sg10
S'6.924'
p1437
sg12
S'4.795'
p1438
sg14
S'-1.013'
p1439
sg16
S'red'
p1440
sg18
S'2014-01-07 14:00:00'
p1441
ssI159
(dp1442
g4
S'159'
p1443
sg6
S'6.435'
p1444
sg8
S'3.866'
p1445
sg10
S'5.941'
p1446
sg12
S'4.919'
p1447
sg14
S'0.097'
p1448
sg16
S'red'
p1449
sg18
S'2014-01-07 15:00:00'
p1450
ssI160
(dp1451
g4
S'160'
p1452
sg6
S'8.122'
p1453
sg8
S'3.194'
p1454
sg10
S'5.875'
p1455
sg12
S'3.445'
p1456
sg14
S'1.385'
p1457
sg16
S'yellow'
p1458
sg18
S'2014-01-07 16:00:00'
p1459
ssI161
(dp1460
g4
S'161'
p1461
sg6
S'8.34'
p1462
sg8
S'2.647'
p1463
sg10
S'5.927'
p1464
sg12
S'4.422'
p1465
sg14
S'-0.866'
p1466
sg16
S'blue'
p1467
sg18
S'2014-01-07 17:00:00'
p1468
ssI162
(dp1469
g4
S'162'
p1470
sg6
S'6.808'
p1471
sg8
S'2.118'
p1472
sg10
S'6.015'
p1473
sg12
S'5.131'
p1474
sg14
S'-0.818'
p1475
sg16
S'red'
p1476
sg18
S'2014-01-07 18:00:00'
p1477
ssI163
(dp1478
g4
S'163'
p1479
sg6
S'5.976'
p1480
sg8
S'3.725'
p1481
sg10
S'4.89'
p1482
sg12
S'4.775'
p1483
sg14
S'0.266'
p1484
sg16
S'red'
p1485
sg18
S'2014-01-07 19:00:00'
p1486
ssI164
(dp1487
g4
S'164'
p1488
sg6
S'6.696'
p1489
sg8
S'3.794'
p1490
sg10
S'5.472'
p1491
sg12
S'5.756'
p1492
sg14
S'1.075'
p1493
sg16
S'red'
p1494
sg18
S'2014-01-07 20:00:00'
p1495
ssI165
(dp1496
g4
S'165'
p1497
sg6
S'6.257'
p1498
sg8
S'3.127'
p1499
sg10
S'4.133'
p1500
sg12
S'4.172'
p1501
sg14
S'0.173'
p1502
sg16
S'green'
p1503
sg18
S'2014-01-07 21:00:00'
p1504
ssI166
(dp1505
g4
S'166'
p1506
sg6
S'8.55'
p1507
sg8
S'3.817'
p1508
sg10
S'6.313'
p1509
sg12
S'3.153'
p1510
sg14
S'1.201'
p1511
sg16
S'yellow'
p1512
sg18
S'2014-01-07 22:00:00'
p1513
ssI167
(dp1514
g4
S'167'
p1515
sg6
S'8.83'
p1516
sg8
S'3.43'
p1517
sg10
S'8.072'
p1518
sg12
S'5.279'
p1519
sg14
S'-0.346'
p1520
sg16
S'orange'
p1521
sg18
S'2014-01-07 23:00:00'
p1522
ssI168
(dp1523
g4
S'168'
p1524
sg6
S'8.518'
p1525
sg8
S'3.046'
p1526
sg10
S'5.772'
p1527
sg12
S'2.753'
p1528
sg14
S'1.239'
p1529
sg16
S'green'
p1530
sg18
S'2014-01-08 00:00:00'
p1531
ssI169
(dp1532
g4
S'169'
p1533
sg6
S'8.25'
p1534
sg8
S'4.703'
p1535
sg10
S'6.57'
p1536
sg12
S'4.597'
p1537
sg14
S'1.059'
p1538
sg16
S'red'
p1539
sg18
S'2014-01-08 01:00:00'
p1540
ssI170
(dp1541
g4
S'170'
p1542
sg6
S'6.645'
p1543
sg8
S'3.118'
p1544
sg10
S'4.152'
p1545
sg12
S'3.885'
p1546
sg14
S'-0.612'
p1547
sg16
S'green'
p1548
sg18
S'2014-01-08 02:00:00'
p1549
ssI171
(dp1550
g4
S'171'
p1551
sg6
S'9.239'
p1552
sg8
S'2.414'
p1553
sg10
S'6.776'
p1554
sg12
S'4.738'
p1555
sg14
S'-0.446'
p1556
sg16
S'red'
p1557
sg18
S'2014-01-08 03:00:00'
p1558
ssI172
(dp1559
g4
S'172'
p1560
sg6
S'7.589'
p1561
sg8
S'3.744'
p1562
sg10
S'5.876'
p1563
sg12
S'3.864'
p1564
sg14
S'0.292'
p1565
sg16
S'orange'
p1566
sg18
S'2014-01-08 04:00:00'
p1567
ssI173
(dp1568
g4
S'173'
p1569
sg6
S'7.511'
p1570
sg8
S'2.597'
p1571
sg10
S'5.552'
p1572
sg12
S'4.881'
p1573
sg14
S'-0.127'
p1574
sg16
S'orange'
p1575
sg18
S'2014-01-08 05:00:00'
p1576
ssI174
(dp1577
g4
S'174'
p1578
sg6
S'9.93'
p1579
sg8
S'3.214'
p1580
sg10
S'6.817'
p1581
sg12
S'5.705'
p1582
sg14
S'0.625'
p1583
sg16
S'blue'
p1584
sg18
S'2014-01-08 06:00:00'
p1585
ssI175
(dp1586
g4
S'175'
p1587
sg6
S'7.066'
p1588
sg8
S'4.765'
p1589
sg10
S'6.151'
p1590
sg12
S'2.899'
p1591
sg14
S'0.619'
p1592
sg16
S'yellow'
p1593
sg18
S'2014-01-08 07:00:00'
p1594
ssI176
(dp1595
g4
S'176'
p1596
sg6
S'8.401'
p1597
sg8
S'4.161'
p1598
sg10
S'6.447'
p1599
sg12
S'4.514'
p1600
sg14
S'1.177'
p1601
sg16
S'blue'
p1602
sg18
S'2014-01-08 08:00:00'
p1603
ssI177
(dp1604
g4
S'177'
p1605
sg6
S'7.619'
p1606
sg8
S'3.822'
p1607
sg10
S'6.867'
p1608
sg12
S'4.329'
p1609
sg14
S'1.872'
p1610
sg16
S'orange'
p1611
sg18
S'2014-01-08 09:00:00'
p1612
ssI178
(dp1613
g4
S'178'
p1614
sg6
S'8.54'
p1615
sg8
S'3.474'
p1616
sg10
S'6.203'
p1617
sg12
S'4.812'
p1618
sg14
S'1.042'
p1619
sg16
S'red'
p1620
sg18
S'2014-01-08 10:00:00'
p1621
ssI179
(dp1622
g4
S'179'
p1623
sg6
S'7.094'
p1624
sg8
S'3.655'
p1625
sg10
S'5.899'
p1626
sg12
S'4.163'
p1627
sg14
S'-2.727'
p1628
sg16
S'green'
p1629
sg18
S'2014-01-08 11:00:00'
p1630
ssI180
(dp1631
g4
S'180'
p1632
sg6
S'8.351'
p1633
sg8
S'2.969'
p1634
sg10
S'4.997'
p1635
sg12
S'2.436'
p1636
sg14
S'-0.102'
p1637
sg16
S'red'
p1638
sg18
S'2014-01-08 12:00:00'
p1639
ssI181
(dp1640
g4
S'181'
p1641
sg6
S'7.518'
p1642
sg8
S'4.312'
p1643
sg10
S'5.283'
p1644
sg12
S'2.868'
p1645
sg14
S'0.535'
p1646
sg16
S'orange'
p1647
sg18
S'2014-01-08 13:00:00'
p1648
ssI182
(dp1649
g4
S'182'
p1650
sg6
S'5.389'
p1651
sg8
S'6.773'
p1652
sg10
S'4.865'
p1653
sg12
S'3.723'
p1654
sg14
S'-0.913'
p1655
sg16
S'red'
p1656
sg18
S'2014-01-08 14:00:00'
p1657
ssI183
(dp1658
g4
S'183'
p1659
sg6
S'7.123'
p1660
sg8
S'4.216'
p1661
sg10
S'6.736'
p1662
sg12
S'2.574'
p1663
sg14
S'0.818'
p1664
sg16
S'green'
p1665
sg18
S'2014-01-08 15:00:00'
p1666
ssI184
(dp1667
g4
S'184'
p1668
sg6
S'6.916'
p1669
sg8
S'2.783'
p1670
sg10
S'5.919'
p1671
sg12
S'4.255'
p1672
sg14
S'1.766'
p1673
sg16
S'red'
p1674
sg18
S'2014-01-08 16:00:00'
p1675
ssI185
(dp1676
g4
S'185'
p1677
sg6
S'7.509'
p1678
sg8
S'4.718'
p1679
sg10
S'6.357'
p1680
sg12
S'2.245'
p1681
sg14
S'-0.635'
p1682
sg16
S'blue'
p1683
sg18
S'2014-01-08 17:00:00'
p1684
ssI186
(dp1685
g4
S'186'
p1686
sg6
S'7.738'
p1687
sg8
S'3.479'
p1688
sg10
S'6.849'
p1689
sg12
S'4.595'
p1690
sg14
S'0.02'
p1691
sg16
S'red'
p1692
sg18
S'2014-01-08 18:00:00'
p1693
ssI187
(dp1694
g4
S'187'
p1695
sg6
S'7.042'
p1696
sg8
S'4.369'
p1697
sg10
S'6.122'
p1698
sg12
S'4.766'
p1699
sg14
S'-0.061'
p1700
sg16
S'yellow'
p1701
sg18
S'2014-01-08 19:00:00'
p1702
ssI188
(dp1703
g4
S'188'
p1704
sg6
S'8.227'
p1705
sg8
S'3.593'
p1706
sg10
S'5.474'
p1707
sg12
S'2.832'
p1708
sg14
S'-0.375'
p1709
sg16
S'green'
p1710
sg18
S'2014-01-08 20:00:00'
p1711
ssI189
(dp1712
g4
S'189'
p1713
sg6
S'7.778'
p1714
sg8
S'2.764'
p1715
sg10
S'7.405'
p1716
sg12
S'4.017'
p1717
sg14
S'-2.116'
p1718
sg16
S'blue'
p1719
sg18
S'2014-01-08 21:00:00'
p1720
ssI190
(dp1721
g4
S'190'
p1722
sg6
S'7.966'
p1723
sg8
S'4.436'
p1724
sg10
S'5.879'
p1725
sg12
S'3.525'
p1726
sg14
S'3.178'
p1727
sg16
S'red'
p1728
sg18
S'2014-01-08 22:00:00'
p1729
ssI191
(dp1730
g4
S'191'
p1731
sg6
S'7.187'
p1732
sg8
S'5.091'
p1733
sg10
S'5.734'
p1734
sg12
S'3.847'
p1735
sg14
S'-0.653'
p1736
sg16
S'yellow'
p1737
sg18
S'2014-01-08 23:00:00'
p1738
ssI192
(dp1739
g4
S'192'
p1740
sg6
S'10.003'
p1741
sg8
S'3.028'
p1742
sg10
S'6.459'
p1743
sg12
S'4.925'
p1744
sg14
S'-0.078'
p1745
sg16
S'blue'
p1746
sg18
S'2014-01-09 00:00:00'
p1747
ssI193
(dp1748
g4
S'193'
p1749
sg6
S'7.349'
p1750
sg8
S'4.523'
p1751
sg10
S'5.761'
p1752
sg12
S'3.355'
p1753
sg14
S'-0.353'
p1754
sg16
S'red'
p1755
sg18
S'2014-01-09 01:00:00'
p1756
ssI194
(dp1757
g4
S'194'
p1758
sg6
S'8.195'
p1759
sg8
S'4.299'
p1760
sg10
S'7.091'
p1761
sg12
S'3.282'
p1762
sg14
S'-0.457'
p1763
sg16
S'red'
p1764
sg18
S'2014-01-09 02:00:00'
p1765
ssI195
(dp1766
g4
S'195'
p1767
sg6
S'7.363'
p1768
sg8
S'3.667'
p1769
sg10
S'6.194'
p1770
sg12
S'5.475'
p1771
sg14
S'-0.106'
p1772
sg16
S'green'
p1773
sg18
S'2014-01-09 03:00:00'
p1774
ssI196
(dp1775
g4
S'196'
p1776
sg6
S'7.02'
p1777
sg8
S'3.322'
p1778
sg10
S'5.307'
p1779
sg12
S'4.757'
p1780
sg14
S'0.636'
p1781
sg16
S'red'
p1782
sg18
S'2014-01-09 04:00:00'
p1783
ssI197
(dp1784
g4
S'197'
p1785
sg6
S'7.18'
p1786
sg8
S'4.361'
p1787
sg10
S'5.633'
p1788
sg12
S'4.633'
p1789
sg14
S'-0.491'
p1790
sg16
S'orange'
p1791
sg18
S'2014-01-09 05:00:00'
p1792
ssI198
(dp1793
g4
S'198'
p1794
sg6
S'8.508'
p1795
sg8
S'2.573'
p1796
sg10
S'8.548'
p1797
sg12
S'4.039'
p1798
sg14
S'0.507'
p1799
sg16
S'yellow'
p1800
sg18
S'2014-01-09 06:00:00'
p1801
ssI199
(dp1802
g4
S'199'
p1803
sg6
S'6.41'
p1804
sg8
S'4.143'
p1805
sg10
S'4.826'
p1806
sg12
S'3.981'
p1807
sg14
S'-0.922'
p1808
sg16
S'green'
p1809
sg18
S'2014-01-09 07:00:00'
p1810
ssI200
(dp1811
g4
S'200'
p1812
sg6
S'8.266'
p1813
sg8
S'3.144'
p1814
sg10
S'7.375'
p1815
sg12
S'4.76'
p1816
sg14
S'0.394'
p1817
sg16
S'green'
p1818
sg18
S'2014-01-09 08:00:00'
p1819
ssI201
(dp1820
g4
S'201'
p1821
sg6
S'9.252'
p1822
sg8
S'4.247'
p1823
sg10
S'5.363'
p1824
sg12
S'2.513'
p1825
sg14
S'0.029'
p1826
sg16
S'green'
p1827
sg18
S'2014-01-09 09:00:00'
p1828
ssI202
(dp1829
g4
S'202'
p1830
sg6
S'7.161'
p1831
sg8
S'2.158'
p1832
sg10
S'5.758'
p1833
sg12
S'2.879'
p1834
sg14
S'1.574'
p1835
sg16
S'blue'
p1836
sg18
S'2014-01-09 10:00:00'
p1837
ssI203
(dp1838
g4
S'203'
p1839
sg6
S'7.569'
p1840
sg8
S'3.247'
p1841
sg10
S'5.934'
p1842
sg12
S'4.26'
p1843
sg14
S'1.052'
p1844
sg16
S'green'
p1845
sg18
S'2014-01-09 11:00:00'
p1846
ssI204
(dp1847
g4
S'204'
p1848
sg6
S'7.259'
p1849
sg8
S'4.381'
p1850
sg10
S'5.837'
p1851
sg12
S'4.302'
p1852
sg14
S'2.528'
p1853
sg16
S'orange'
p1854
sg18
S'2014-01-09 12:00:00'
p1855
ssI205
(dp1856
g4
S'205'
p1857
sg6
S'7.403'
p1858
sg8
S'2.585'
p1859
sg10
S'5.969'
p1860
sg12
S'4.479'
p1861
sg14
S'0.438'
p1862
sg16
S'blue'
p1863
sg18
S'2014-01-09 13:00:00'
p1864
ssI206
(dp1865
g4
S'206'
p1866
sg6
S'5.993'
p1867
sg8
S'6.579'
p1868
sg10
S'5.5'
p1869
sg12
S'5.681'
p1870
sg14
S'-0.171'
p1871
sg16
S'red'
p1872
sg18
S'2014-01-09 14:00:00'
p1873
ssI207
(dp1874
g4
S'207'
p1875
sg6
S'7.365'
p1876
sg8
S'3.524'
p1877
sg10
S'6.398'
p1878
sg12
S'3.671'
p1879
sg14
S'0.314'
p1880
sg16
S'blue'
p1881
sg18
S'2014-01-09 15:00:00'
p1882
ssI208
(dp1883
g4
S'208'
p1884
sg6
S'6.199'
p1885
sg8
S'3.954'
p1886
sg10
S'5.879'
p1887
sg12
S'4.546'
p1888
sg14
S'0.604'
p1889
sg16
S'blue'
p1890
sg18
S'2014-01-09 16:00:00'
p1891
ssI209
(dp1892
g4
S'209'
p1893
sg6
S'7.051'
p1894
sg8
S'3.509'
p1895
sg10
S'6.219'
p1896
sg12
S'4.526'
p1897
sg14
S'-1.33'
p1898
sg16
S'green'
p1899
sg18
S'2014-01-09 17:00:00'
p1900
ssI210
(dp1901
g4
S'210'
p1902
sg6
S'5.878'
p1903
sg8
S'3.774'
p1904
sg10
S'5.551'
p1905
sg12
S'2.865'
p1906
sg14
S'1.599'
p1907
sg16
S'yellow'
p1908
sg18
S'2014-01-09 18:00:00'
p1909
ssI211
(dp1910
g4
S'211'
p1911
sg6
S'7.48'
p1912
sg8
S'4.731'
p1913
sg10
S'5.533'
p1914
sg12
S'4.284'
p1915
sg14
S'1.185'
p1916
sg16
S'orange'
p1917
sg18
S'2014-01-09 19:00:00'
p1918
ssI212
(dp1919
g4
S'212'
p1920
sg6
S'7.083'
p1921
sg8
S'3.148'
p1922
sg10
S'6.75'
p1923
sg12
S'2.508'
p1924
sg14
S'1.283'
p1925
sg16
S'yellow'
p1926
sg18
S'2014-01-09 20:00:00'
p1927
ssI213
(dp1928
g4
S'213'
p1929
sg6
S'8.4'
p1930
sg8
S'3.174'
p1931
sg10
S'5.739'
p1932
sg12
S'4.243'
p1933
sg14
S'-0.754'
p1934
sg16
S'red'
p1935
sg18
S'2014-01-09 21:00:00'
p1936
ssI214
(dp1937
g4
S'214'
p1938
sg6
S'6.057'
p1939
sg8
S'5.104'
p1940
sg10
S'4.263'
p1941
sg12
S'3.908'
p1942
sg14
S'0.775'
p1943
sg16
S'green'
p1944
sg18
S'2014-01-09 22:00:00'
p1945
ssI215
(dp1946
g4
S'215'
p1947
sg6
S'7.309'
p1948
sg8
S'3.514'
p1949
sg10
S'5.139'
p1950
sg12
S'2.716'
p1951
sg14
S'3.041'
p1952
sg16
S'blue'
p1953
sg18
S'2014-01-09 23:00:00'
p1954
ssI216
(dp1955
g4
S'216'
p1956
sg6
S'7.264'
p1957
sg8
S'3.622'
p1958
sg10
S'6.296'
p1959
sg12
S'3.075'
p1960
sg14
S'1.505'
p1961
sg16
S'orange'
p1962
sg18
S'2014-01-10 00:00:00'
p1963
ssI217
(dp1964
g4
S'217'
p1965
sg6
S'5.646'
p1966
sg8
S'6.402'
p1967
sg10
S'4.659'
p1968
sg12
S'3.69'
p1969
sg14
S'1.264'
p1970
sg16
S'yellow'
p1971
sg18
S'2014-01-10 01:00:00'
p1972
ssI218
(dp1973
g4
S'218'
p1974
sg6
S'5.634'
p1975
sg8
S'4.519'
p1976
sg10
S'4.442'
p1977
sg12
S'4.792'
p1978
sg14
S'1.238'
p1979
sg16
S'green'
p1980
sg18
S'2014-01-10 02:00:00'
p1981
ssI219
(dp1982
g4
S'219'
p1983
sg6
S'7.735'
p1984
sg8
S'3.356'
p1985
sg10
S'6.632'
p1986
sg12
S'3.677'
p1987
sg14
S'0.805'
p1988
sg16
S'blue'
p1989
sg18
S'2014-01-10 03:00:00'
p1990
ssI220
(dp1991
g4
S'220'
p1992
sg6
S'8.011'
p1993
sg8
S'2.447'
p1994
sg10
S'7.361'
p1995
sg12
S'7.226'
p1996
sg14
S'0.033'
p1997
sg16
S'yellow'
p1998
sg18
S'2014-01-10 04:00:00'
p1999
ssI221
(dp2000
g4
S'221'
p2001
sg6
S'8.071'
p2002
sg8
S'4.25'
p2003
sg10
S'5.383'
p2004
sg12
S'3.623'
p2005
sg14
S'0.755'
p2006
sg16
S'red'
p2007
sg18
S'2014-01-10 05:00:00'
p2008
ssI222
(dp2009
g4
S'222'
p2010
sg6
S'5.141'
p2011
sg8
S'4.45'
p2012
sg10
S'3.512'
p2013
sg12
S'5.626'
p2014
sg14
S'1.338'
p2015
sg16
S'green'
p2016
sg18
S'2014-01-10 06:00:00'
p2017
ssI223
(dp2018
g4
S'223'
p2019
sg6
S'8.922'
p2020
sg8
S'3.618'
p2021
sg10
S'6.397'
p2022
sg12
S'3.075'
p2023
sg14
S'-0.597'
p2024
sg16
S'yellow'
p2025
sg18
S'2014-01-10 07:00:00'
p2026
ssI224
(dp2027
g4
S'224'
p2028
sg6
S'7.398'
p2029
sg8
S'3.793'
p2030
sg10
S'5.388'
p2031
sg12
S'4.623'
p2032
sg14
S'1.009'
p2033
sg16
S'orange'
p2034
sg18
S'2014-01-10 08:00:00'
p2035
ssI225
(dp2036
g4
S'225'
p2037
sg6
S'8.616'
p2038
sg8
S'4.264'
p2039
sg10
S'7.063'
p2040
sg12
S'3.522'
p2041
sg14
S'1.59'
p2042
sg16
S'green'
p2043
sg18
S'2014-01-10 09:00:00'
p2044
ssI226
(dp2045
g4
S'226'
p2046
sg6
S'8.103'
p2047
sg8
S'3.589'
p2048
sg10
S'6.386'
p2049
sg12
S'4.656'
p2050
sg14
S'1.851'
p2051
sg16
S'green'
p2052
sg18
S'2014-01-10 10:00:00'
p2053
ssI227
(dp2054
g4
S'227'
p2055
sg6
S'6.648'
p2056
sg8
S'4.661'
p2057
sg10
S'5.757'
p2058
sg12
S'2.521'
p2059
sg14
S'-0.08'
p2060
sg16
S'yellow'
p2061
sg18
S'2014-01-10 11:00:00'
p2062
ssI228
(dp2063
g4
S'228'
p2064
sg6
S'8.349'
p2065
sg8
S'4.043'
p2066
sg10
S'6.673'
p2067
sg12
S'4.3'
p2068
sg14
S'0.686'
p2069
sg16
S'blue'
p2070
sg18
S'2014-01-10 12:00:00'
p2071
ssI229
(dp2072
g4
S'229'
p2073
sg6
S'6.932'
p2074
sg8
S'3.117'
p2075
sg10
S'5.709'
p2076
sg12
S'3.909'
p2077
sg14
S'0.152'
p2078
sg16
S'red'
p2079
sg18
S'2014-01-10 13:00:00'
p2080
ssI230
(dp2081
g4
S'230'
p2082
sg6
S'7.713'
p2083
sg8
S'4.206'
p2084
sg10
S'5.423'
p2085
sg12
S'3.212'
p2086
sg14
S'1.068'
p2087
sg16
S'green'
p2088
sg18
S'2014-01-10 14:00:00'
p2089
ssI231
(dp2090
g4
S'231'
p2091
sg6
S'7.163'
p2092
sg8
S'5.125'
p2093
sg10
S'5.487'
p2094
sg12
S'2.721'
p2095
sg14
S'0.282'
p2096
sg16
S'yellow'
p2097
sg18
S'2014-01-10 15:00:00'
p2098
ssI232
(dp2099
g4
S'232'
p2100
sg6
S'8.206'
p2101
sg8
S'3.532'
p2102
sg10
S'5.717'
p2103
sg12
S'3.531'
p2104
sg14
S'1.624'
p2105
sg16
S'red'
p2106
sg18
S'2014-01-10 16:00:00'
p2107
ssI233
(dp2108
g4
S'233'
p2109
sg6
S'6.73'
p2110
sg8
S'2.717'
p2111
sg10
S'5.193'
p2112
sg12
S'4.064'
p2113
sg14
S'0.903'
p2114
sg16
S'orange'
p2115
sg18
S'2014-01-10 17:00:00'
p2116
ssI234
(dp2117
g4
S'234'
p2118
sg6
S'8.658'
p2119
sg8
S'2.718'
p2120
sg10
S'7.422'
p2121
sg12
S'4.882'
p2122
sg14
S'0.403'
p2123
sg16
S'blue'
p2124
sg18
S'2014-01-10 18:00:00'
p2125
ssI235
(dp2126
g4
S'235'
p2127
sg6
S'6.889'
p2128
sg8
S'2.202'
p2129
sg10
S'5.301'
p2130
sg12
S'4.253'
p2131
sg14
S'0.69'
p2132
sg16
S'red'
p2133
sg18
S'2014-01-10 19:00:00'
p2134
ssI236
(dp2135
g4
S'236'
p2136
sg6
S'6.449'
p2137
sg8
S'3.213'
p2138
sg10
S'4.569'
p2139
sg12
S'4.514'
p2140
sg14
S'-0.413'
p2141
sg16
S'blue'
p2142
sg18
S'2014-01-10 20:00:00'
p2143
ssI237
(dp2144
g4
S'237'
p2145
sg6
S'8.647'
p2146
sg8
S'3.19'
p2147
sg10
S'4.963'
p2148
sg12
S'4.477'
p2149
sg14
S'0.114'
p2150
sg16
S'blue'
p2151
sg18
S'2014-01-10 21:00:00'
p2152
ssI238
(dp2153
g4
S'238'
p2154
sg6
S'7.067'
p2155
sg8
S'4.979'
p2156
sg10
S'5.203'
p2157
sg12
S'4.034'
p2158
sg14
S'1.0'
p2159
sg16
S'orange'
p2160
sg18
S'2014-01-10 22:00:00'
p2161
ssI239
(dp2162
g4
S'239'
p2163
sg6
S'7.695'
p2164
sg8
S'2.99'
p2165
sg10
S'6.157'
p2166
sg12
S'4.082'
p2167
sg14
S'1.579'
p2168
sg16
S'orange'
p2169
sg18
S'2014-01-10 23:00:00'
p2170
ssI240
(dp2171
g4
S'240'
p2172
sg6
S'6.758'
p2173
sg8
S'2.863'
p2174
sg10
S'4.555'
p2175
sg12
S'3.515'
p2176
sg14
S'1.761'
p2177
sg16
S'orange'
p2178
sg18
S'2014-01-11 00:00:00'
p2179
ssI241
(dp2180
g4
S'241'
p2181
sg6
S'6.923'
p2182
sg8
S'5.105'
p2183
sg10
S'4.475'
p2184
sg12
S'3.267'
p2185
sg14
S'2.966'
p2186
sg16
S'red'
p2187
sg18
S'2014-01-11 01:00:00'
p2188
ssI242
(dp2189
g4
S'242'
p2190
sg6
S'10.099'
p2191
sg8
S'2.122'
p2192
sg10
S'8.416'
p2193
sg12
S'3.541'
p2194
sg14
S'1.192'
p2195
sg16
S'orange'
p2196
sg18
S'2014-01-11 02:00:00'
p2197
ssI243
(dp2198
g4
S'243'
p2199
sg6
S'8.223'
p2200
sg8
S'2.662'
p2201
sg10
S'5.965'
p2202
sg12
S'5.127'
p2203
sg14
S'1.76'
p2204
sg16
S'blue'
p2205
sg18
S'2014-01-11 03:00:00'
p2206
ssI244
(dp2207
g4
S'244'
p2208
sg6
S'8.968'
p2209
sg8
S'3.885'
p2210
sg10
S'4.982'
p2211
sg12
S'2.437'
p2212
sg14
S'1.337'
p2213
sg16
S'red'
p2214
sg18
S'2014-01-11 04:00:00'
p2215
ssI245
(dp2216
g4
S'245'
p2217
sg6
S'6.708'
p2218
sg8
S'3.092'
p2219
sg10
S'5.048'
p2220
sg12
S'3.966'
p2221
sg14
S'1.282'
p2222
sg16
S'orange'
p2223
sg18
S'2014-01-11 05:00:00'
p2224
ssI246
(dp2225
g4
S'246'
p2226
sg6
S'5.965'
p2227
sg8
S'3.402'
p2228
sg10
S'4.678'
p2229
sg12
S'3.953'
p2230
sg14
S'1.105'
p2231
sg16
S'green'
p2232
sg18
S'2014-01-11 06:00:00'
p2233
ssI247
(dp2234
g4
S'247'
p2235
sg6
S'7.961'
p2236
sg8
S'3.97'
p2237
sg10
S'6.27'
p2238
sg12
S'4.462'
p2239
sg14
S'0.343'
p2240
sg16
S'yellow'
p2241
sg18
S'2014-01-11 07:00:00'
p2242
ssI248
(dp2243
g4
S'248'
p2244
sg6
S'9.218'
p2245
sg8
S'4.175'
p2246
sg10
S'6.038'
p2247
sg12
S'2.446'
p2248
sg14
S'0.566'
p2249
sg16
S'yellow'
p2250
sg18
S'2014-01-11 08:00:00'
p2251
ssI249
(dp2252
g4
S'249'
p2253
sg6
S'8.838'
p2254
sg8
S'3.378'
p2255
sg10
S'8.119'
p2256
sg12
S'3.434'
p2257
sg14
S'-2.344'
p2258
sg16
S'yellow'
p2259
sg18
S'2014-01-11 09:00:00'
p2260
ssI250
(dp2261
g4
S'250'
p2262
sg6
S'8.747'
p2263
sg8
S'4.43'
p2264
sg10
S'7.565'
p2265
sg12
S'4.305'
p2266
sg14
S'1.12'
p2267
sg16
S'red'
p2268
sg18
S'2014-01-11 10:00:00'
p2269
ssI251
(dp2270
g4
S'251'
p2271
sg6
S'8.047'
p2272
sg8
S'2.736'
p2273
sg10
S'5.943'
p2274
sg12
S'5.83'
p2275
sg14
S'-0.395'
p2276
sg16
S'yellow'
p2277
sg18
S'2014-01-11 11:00:00'
p2278
ssI252
(dp2279
g4
S'252'
p2280
sg6
S'8.043'
p2281
sg8
S'3.191'
p2282
sg10
S'5.398'
p2283
sg12
S'2.959'
p2284
sg14
S'1.229'
p2285
sg16
S'red'
p2286
sg18
S'2014-01-11 12:00:00'
p2287
ssI253
(dp2288
g4
S'253'
p2289
sg6
S'7.435'
p2290
sg8
S'3.548'
p2291
sg10
S'5.684'
p2292
sg12
S'3.676'
p2293
sg14
S'0.837'
p2294
sg16
S'yellow'
p2295
sg18
S'2014-01-11 13:00:00'
p2296
ssI254
(dp2297
g4
S'254'
p2298
sg6
S'8.88'
p2299
sg8
S'3.19'
p2300
sg10
S'7.502'
p2301
sg12
S'1.086'
p2302
sg14
S'1.1'
p2303
sg16
S'blue'
p2304
sg18
S'2014-01-11 14:00:00'
p2305
ssI255
(dp2306
g4
S'255'
p2307
sg6
S'6.685'
p2308
sg8
S'2.516'
p2309
sg10
S'6.746'
p2310
sg12
S'2.438'
p2311
sg14
S'1.241'
p2312
sg16
S'yellow'
p2313
sg18
S'2014-01-11 15:00:00'
p2314
ssI256
(dp2315
g4
S'256'
p2316
sg6
S'7.626'
p2317
sg8
S'3.47'
p2318
sg10
S'5.245'
p2319
sg12
S'2.588'
p2320
sg14
S'0.123'
p2321
sg16
S'yellow'
p2322
sg18
S'2014-01-11 16:00:00'
p2323
ssI257
(dp2324
g4
S'257'
p2325
sg6
S'8.444'
p2326
sg8
S'5.069'
p2327
sg10
S'7.517'
p2328
sg12
S'3.653'
p2329
sg14
S'-1.863'
p2330
sg16
S'green'
p2331
sg18
S'2014-01-11 17:00:00'
p2332
ssI258
(dp2333
g4
S'258'
p2334
sg6
S'7.777'
p2335
sg8
S'3.053'
p2336
sg10
S'5.682'
p2337
sg12
S'5.459'
p2338
sg14
S'0.995'
p2339
sg16
S'red'
p2340
sg18
S'2014-01-11 18:00:00'
p2341
ssI259
(dp2342
g4
S'259'
p2343
sg6
S'6.628'
p2344
sg8
S'3.881'
p2345
sg10
S'5.157'
p2346
sg12
S'5.509'
p2347
sg14
S'-0.06'
p2348
sg16
S'red'
p2349
sg18
S'2014-01-11 19:00:00'
p2350
ssI260
(dp2351
g4
S'260'
p2352
sg6
S'7.085'
p2353
sg8
S'4.031'
p2354
sg10
S'5.843'
p2355
sg12
S'5.727'
p2356
sg14
S'1.332'
p2357
sg16
S'blue'
p2358
sg18
S'2014-01-11 20:00:00'
p2359
ssI261
(dp2360
g4
S'261'
p2361
sg6
S'6.209'
p2362
sg8
S'3.71'
p2363
sg10
S'4.776'
p2364
sg12
S'4.198'
p2365
sg14
S'-0.252'
p2366
sg16
S'green'
p2367
sg18
S'2014-01-11 21:00:00'
p2368
ssI262
(dp2369
g4
S'262'
p2370
sg6
S'6.769'
p2371
sg8
S'3.878'
p2372
sg10
S'4.135'
p2373
sg12
S'4.524'
p2374
sg14
S'1.574'
p2375
sg16
S'orange'
p2376
sg18
S'2014-01-11 22:00:00'
p2377
ssI263
(dp2378
g4
S'263'
p2379
sg6
S'7.4'
p2380
sg8
S'3.574'
p2381
sg10
S'5.614'
p2382
sg12
S'4.342'
p2383
sg14
S'-0.447'
p2384
sg16
S'yellow'
p2385
sg18
S'2014-01-11 23:00:00'
p2386
ssI264
(dp2387
g4
S'264'
p2388
sg6
S'8.099'
p2389
sg8
S'4.47'
p2390
sg10
S'6.968'
p2391
sg12
S'3.552'
p2392
sg14
S'-0.764'
p2393
sg16
S'orange'
p2394
sg18
S'2014-01-12 00:00:00'
p2395
ssI265
(dp2396
g4
S'265'
p2397
sg6
S'7.434'
p2398
sg8
S'1.356'
p2399
sg10
S'5.921'
p2400
sg12
S'3.938'
p2401
sg14
S'1.02'
p2402
sg16
S'yellow'
p2403
sg18
S'2014-01-12 01:00:00'
p2404
ssI266
(dp2405
g4
S'266'
p2406
sg6
S'8.218'
p2407
sg8
S'3.497'
p2408
sg10
S'4.661'
p2409
sg12
S'4.777'
p2410
sg14
S'1.311'
p2411
sg16
S'blue'
p2412
sg18
S'2014-01-12 02:00:00'
p2413
ssI267
(dp2414
g4
S'267'
p2415
sg6
S'8.075'
p2416
sg8
S'4.127'
p2417
sg10
S'5.569'
p2418
sg12
S'2.893'
p2419
sg14
S'0.648'
p2420
sg16
S'yellow'
p2421
sg18
S'2014-01-12 03:00:00'
p2422
ssI268
(dp2423
g4
S'268'
p2424
sg6
S'7.29'
p2425
sg8
S'4.909'
p2426
sg10
S'5.29'
p2427
sg12
S'3.864'
p2428
sg14
S'-0.779'
p2429
sg16
S'red'
p2430
sg18
S'2014-01-12 04:00:00'
p2431
ssI269
(dp2432
g4
S'269'
p2433
sg6
S'7.16'
p2434
sg8
S'3.814'
p2435
sg10
S'5.136'
p2436
sg12
S'4.723'
p2437
sg14
S'1.006'
p2438
sg16
S'blue'
p2439
sg18
S'2014-01-12 05:00:00'
p2440
ssI270
(dp2441
g4
S'270'
p2442
sg6
S'7.758'
p2443
sg8
S'2.774'
p2444
sg10
S'6.359'
p2445
sg12
S'2.312'
p2446
sg14
S'0.521'
p2447
sg16
S'blue'
p2448
sg18
S'2014-01-12 06:00:00'
p2449
ssI271
(dp2450
g4
S'271'
p2451
sg6
S'7.95'
p2452
sg8
S'4.384'
p2453
sg10
S'6.023'
p2454
sg12
S'3.203'
p2455
sg14
S'-0.347'
p2456
sg16
S'orange'
p2457
sg18
S'2014-01-12 07:00:00'
p2458
ssI272
(dp2459
g4
S'272'
p2460
sg6
S'4.773'
p2461
sg8
S'4.573'
p2462
sg10
S'4.254'
p2463
sg12
S'4.508'
p2464
sg14
S'-0.632'
p2465
sg16
S'orange'
p2466
sg18
S'2014-01-12 08:00:00'
p2467
ssI273
(dp2468
g4
S'273'
p2469
sg6
S'6.73'
p2470
sg8
S'4.847'
p2471
sg10
S'6.809'
p2472
sg12
S'3.658'
p2473
sg14
S'-0.165'
p2474
sg16
S'orange'
p2475
sg18
S'2014-01-12 09:00:00'
p2476
ssI274
(dp2477
g4
S'274'
p2478
sg6
S'8.053'
p2479
sg8
S'3.908'
p2480
sg10
S'5.181'
p2481
sg12
S'4.107'
p2482
sg14
S'0.832'
p2483
sg16
S'yellow'
p2484
sg18
S'2014-01-12 10:00:00'
p2485
ssI275
(dp2486
g4
S'275'
p2487
sg6
S'8.192'
p2488
sg8
S'3.543'
p2489
sg10
S'6.496'
p2490
sg12
S'3.645'
p2491
sg14
S'0.268'
p2492
sg16
S'green'
p2493
sg18
S'2014-01-12 11:00:00'
p2494
ssI276
(dp2495
g4
S'276'
p2496
sg6
S'7.576'
p2497
sg8
S'3.149'
p2498
sg10
S'5.092'
p2499
sg12
S'3.07'
p2500
sg14
S'0.503'
p2501
sg16
S'blue'
p2502
sg18
S'2014-01-12 12:00:00'
p2503
ssI277
(dp2504
g4
S'277'
p2505
sg6
S'7.019'
p2506
sg8
S'4.063'
p2507
sg10
S'5.467'
p2508
sg12
S'6.233'
p2509
sg14
S'1.496'
p2510
sg16
S'orange'
p2511
sg18
S'2014-01-12 13:00:00'
p2512
ssI278
(dp2513
g4
S'278'
p2514
sg6
S'6.583'
p2515
sg8
S'4.842'
p2516
sg10
S'5.216'
p2517
sg12
S'2.965'
p2518
sg14
S'1.345'
p2519
sg16
S'green'
p2520
sg18
S'2014-01-12 14:00:00'
p2521
ssI279
(dp2522
g4
S'279'
p2523
sg6
S'8.941'
p2524
sg8
S'2.449'
p2525
sg10
S'8.172'
p2526
sg12
S'5.23'
p2527
sg14
S'2.566'
p2528
sg16
S'red'
p2529
sg18
S'2014-01-12 15:00:00'
p2530
ssI280
(dp2531
g4
S'280'
p2532
sg6
S'6.708'
p2533
sg8
S'4.731'
p2534
sg10
S'5.447'
p2535
sg12
S'3.538'
p2536
sg14
S'-0.151'
p2537
sg16
S'blue'
p2538
sg18
S'2014-01-12 16:00:00'
p2539
ssI281
(dp2540
g4
S'281'
p2541
sg6
S'7.868'
p2542
sg8
S'4.209'
p2543
sg10
S'7.342'
p2544
sg12
S'4.378'
p2545
sg14
S'-0.808'
p2546
sg16
S'orange'
p2547
sg18
S'2014-01-12 17:00:00'
p2548
ssI282
(dp2549
g4
S'282'
p2550
sg6
S'7.564'
p2551
sg8
S'3.52'
p2552
sg10
S'5.073'
p2553
sg12
S'4.114'
p2554
sg14
S'0.284'
p2555
sg16
S'green'
p2556
sg18
S'2014-01-12 18:00:00'
p2557
ssI283
(dp2558
g4
S'283'
p2559
sg6
S'8.226'
p2560
sg8
S'3.757'
p2561
sg10
S'6.768'
p2562
sg12
S'3.165'
p2563
sg14
S'-1.186'
p2564
sg16
S'green'
p2565
sg18
S'2014-01-12 19:00:00'
p2566
ssI284
(dp2567
g4
S'284'
p2568
sg6
S'6.552'
p2569
sg8
S'3.768'
p2570
sg10
S'3.402'
p2571
sg12
S'4.632'
p2572
sg14
S'-0.374'
p2573
sg16
S'red'
p2574
sg18
S'2014-01-12 20:00:00'
p2575
ssI285
(dp2576
g4
S'285'
p2577
sg6
S'6.687'
p2578
sg8
S'4.874'
p2579
sg10
S'6.607'
p2580
sg12
S'4.969'
p2581
sg14
S'-0.788'
p2582
sg16
S'green'
p2583
sg18
S'2014-01-12 21:00:00'
p2584
ssI286
(dp2585
g4
S'286'
p2586
sg6
S'7.888'
p2587
sg8
S'4.837'
p2588
sg10
S'6.793'
p2589
sg12
S'4.551'
p2590
sg14
S'0.596'
p2591
sg16
S'blue'
p2592
sg18
S'2014-01-12 22:00:00'
p2593
ssI287
(dp2594
g4
S'287'
p2595
sg6
S'6.625'
p2596
sg8
S'5.081'
p2597
sg10
S'5.278'
p2598
sg12
S'3.672'
p2599
sg14
S'-0.295'
p2600
sg16
S'orange'
p2601
sg18
S'2014-01-12 23:00:00'
p2602
ssI288
(dp2603
g4
S'288'
p2604
sg6
S'7.81'
p2605
sg8
S'2.528'
p2606
sg10
S'5.886'
p2607
sg12
S'3.779'
p2608
sg14
S'1.015'
p2609
sg16
S'red'
p2610
sg18
S'2014-01-13 00:00:00'
p2611
ssI289
(dp2612
g4
S'289'
p2613
sg6
S'6.479'
p2614
sg8
S'6.091'
p2615
sg10
S'5.232'
p2616
sg12
S'5.119'
p2617
sg14
S'1.483'
p2618
sg16
S'red'
p2619
sg18
S'2014-01-13 01:00:00'
p2620
ssI290
(dp2621
g4
S'290'
p2622
sg6
S'7.769'
p2623
sg8
S'3.461'
p2624
sg10
S'5.502'
p2625
sg12
S'4.084'
p2626
sg14
S'1.003'
p2627
sg16
S'orange'
p2628
sg18
S'2014-01-13 02:00:00'
p2629
ssI291
(dp2630
g4
S'291'
p2631
sg6
S'8.183'
p2632
sg8
S'4.372'
p2633
sg10
S'7.901'
p2634
sg12
S'2.831'
p2635
sg14
S'-0.574'
p2636
sg16
S'green'
p2637
sg18
S'2014-01-13 03:00:00'
p2638
ssI292
(dp2639
g4
S'292'
p2640
sg6
S'5.854'
p2641
sg8
S'3.929'
p2642
sg10
S'4.9'
p2643
sg12
S'3.859'
p2644
sg14
S'-0.143'
p2645
sg16
S'orange'
p2646
sg18
S'2014-01-13 04:00:00'
p2647
ssI293
(dp2648
g4
S'293'
p2649
sg6
S'6.237'
p2650
sg8
S'3.164'
p2651
sg10
S'5.587'
p2652
sg12
S'4.375'
p2653
sg14
S'1.659'
p2654
sg16
S'orange'
p2655
sg18
S'2014-01-13 05:00:00'
p2656
ssI294
(dp2657
g4
S'294'
p2658
sg6
S'7.62'
p2659
sg8
S'2.893'
p2660
sg10
S'6.32'
p2661
sg12
S'5.487'
p2662
sg14
S'-1.3'
p2663
sg16
S'blue'
p2664
sg18
S'2014-01-13 06:00:00'
p2665
ssI295
(dp2666
g4
S'295'
p2667
sg6
S'7.22'
p2668
sg8
S'3.839'
p2669
sg10
S'6.617'
p2670
sg12
S'4.698'
p2671
sg14
S'1.108'
p2672
sg16
S'blue'
p2673
sg18
S'2014-01-13 07:00:00'
p2674
ssI296
(dp2675
g4
S'296'
p2676
sg6
S'7.521'
p2677
sg8
S'3.469'
p2678
sg10
S'5.627'
p2679
sg12
S'5.184'
p2680
sg14
S'-0.006'
p2681
sg16
S'green'
p2682
sg18
S'2014-01-13 08:00:00'
p2683
ssI297
(dp2684
g4
S'297'
p2685
sg6
S'7.563'
p2686
sg8
S'3.386'
p2687
sg10
S'6.538'
p2688
sg12
S'2.904'
p2689
sg14
S'0.245'
p2690
sg16
S'green'
p2691
sg18
S'2014-01-13 09:00:00'
p2692
ssI298
(dp2693
g4
S'298'
p2694
sg6
S'7.855'
p2695
sg8
S'2.438'
p2696
sg10
S'6.744'
p2697
sg12
S'3.154'
p2698
sg14
S'-0.163'
p2699
sg16
S'orange'
p2700
sg18
S'2014-01-13 10:00:00'
p2701
ssI299
(dp2702
g4
S'299'
p2703
sg6
S'9.203'
p2704
sg8
S'4.093'
p2705
sg10
S'7.181'
p2706
sg12
S'2.345'
p2707
sg14
S'0.071'
p2708
sg16
S'red'
p2709
sg18
S'2014-01-13 11:00:00'
p2710
ssI300
(dp2711
g4
S'300'
p2712
sg6
S'5.819'
p2713
sg8
S'4.682'
p2714
sg10
S'4.77'
p2715
sg12
S'4.082'
p2716
sg14
S'2.009'
p2717
sg16
S'orange'
p2718
sg18
S'2014-01-13 12:00:00'
p2719
ssI301
(dp2720
g4
S'301'
p2721
sg6
S'8.322'
p2722
sg8
S'3.59'
p2723
sg10
S'6.862'
p2724
sg12
S'4.3'
p2725
sg14
S'1.316'
p2726
sg16
S'red'
p2727
sg18
S'2014-01-13 13:00:00'
p2728
ssI302
(dp2729
g4
S'302'
p2730
sg6
S'8.769'
p2731
sg8
S'3.142'
p2732
sg10
S'8.277'
p2733
sg12
S'4.579'
p2734
sg14
S'-1.257'
p2735
sg16
S'yellow'
p2736
sg18
S'2014-01-13 14:00:00'
p2737
ssI303
(dp2738
g4
S'303'
p2739
sg6
S'7.613'
p2740
sg8
S'4.595'
p2741
sg10
S'5.649'
p2742
sg12
S'4.062'
p2743
sg14
S'0.443'
p2744
sg16
S'green'
p2745
sg18
S'2014-01-13 15:00:00'
p2746
ssI304
(dp2747
g4
S'304'
p2748
sg6
S'8.033'
p2749
sg8
S'3.484'
p2750
sg10
S'6.592'
p2751
sg12
S'4.007'
p2752
sg14
S'2.057'
p2753
sg16
S'red'
p2754
sg18
S'2014-01-13 16:00:00'
p2755
ssI305
(dp2756
g4
S'305'
p2757
sg6
S'7.526'
p2758
sg8
S'4.227'
p2759
sg10
S'7.722'
p2760
sg12
S'2.084'
p2761
sg14
S'-1.208'
p2762
sg16
S'green'
p2763
sg18
S'2014-01-13 17:00:00'
p2764
ssI306
(dp2765
g4
S'306'
p2766
sg6
S'7.99'
p2767
sg8
S'3.881'
p2768
sg10
S'6.121'
p2769
sg12
S'2.064'
p2770
sg14
S'-0.069'
p2771
sg16
S'green'
p2772
sg18
S'2014-01-13 18:00:00'
p2773
ssI307
(dp2774
g4
S'307'
p2775
sg6
S'7.281'
p2776
sg8
S'3.002'
p2777
sg10
S'4.92'
p2778
sg12
S'3.934'
p2779
sg14
S'0.988'
p2780
sg16
S'orange'
p2781
sg18
S'2014-01-13 19:00:00'
p2782
ssI308
(dp2783
g4
S'308'
p2784
sg6
S'7.661'
p2785
sg8
S'3.461'
p2786
sg10
S'6.658'
p2787
sg12
S'3.035'
p2788
sg14
S'0.337'
p2789
sg16
S'orange'
p2790
sg18
S'2014-01-13 20:00:00'
p2791
ssI309
(dp2792
g4
S'309'
p2793
sg6
S'7.262'
p2794
sg8
S'5.162'
p2795
sg10
S'5.394'
p2796
sg12
S'3.875'
p2797
sg14
S'-1.857'
p2798
sg16
S'blue'
p2799
sg18
S'2014-01-13 21:00:00'
p2800
ssI310
(dp2801
g4
S'310'
p2802
sg6
S'7.235'
p2803
sg8
S'3.239'
p2804
sg10
S'6.23'
p2805
sg12
S'3.232'
p2806
sg14
S'-2.409'
p2807
sg16
S'yellow'
p2808
sg18
S'2014-01-13 22:00:00'
p2809
ssI311
(dp2810
g4
S'311'
p2811
sg6
S'7.27'
p2812
sg8
S'3.623'
p2813
sg10
S'7.382'
p2814
sg12
S'4.326'
p2815
sg14
S'-0.468'
p2816
sg16
S'orange'
p2817
sg18
S'2014-01-13 23:00:00'
p2818
ssI312
(dp2819
g4
S'312'
p2820
sg6
S'8.842'
p2821
sg8
S'3.795'
p2822
sg10
S'8.404'
p2823
sg12
S'3.898'
p2824
sg14
S'1.796'
p2825
sg16
S'green'
p2826
sg18
S'2014-01-14 00:00:00'
p2827
ssI313
(dp2828
g4
S'313'
p2829
sg6
S'7.415'
p2830
sg8
S'3.597'
p2831
sg10
S'5.051'
p2832
sg12
S'1.681'
p2833
sg14
S'-0.694'
p2834
sg16
S'orange'
p2835
sg18
S'2014-01-14 01:00:00'
p2836
ssI314
(dp2837
g4
S'314'
p2838
sg6
S'8.034'
p2839
sg8
S'3.207'
p2840
sg10
S'5.144'
p2841
sg12
S'4.326'
p2842
sg14
S'0.588'
p2843
sg16
S'green'
p2844
sg18
S'2014-01-14 02:00:00'
p2845
ssI315
(dp2846
g4
S'315'
p2847
sg6
S'9.008'
p2848
sg8
S'3.16'
p2849
sg10
S'7.399'
p2850
sg12
S'4.272'
p2851
sg14
S'1.203'
p2852
sg16
S'blue'
p2853
sg18
S'2014-01-14 03:00:00'
p2854
ssI316
(dp2855
g4
S'316'
p2856
sg6
S'7.319'
p2857
sg8
S'3.529'
p2858
sg10
S'5.528'
p2859
sg12
S'3.571'
p2860
sg14
S'-0.236'
p2861
sg16
S'green'
p2862
sg18
S'2014-01-14 04:00:00'
p2863
ssI317
(dp2864
g4
S'317'
p2865
sg6
S'7.931'
p2866
sg8
S'4.15'
p2867
sg10
S'4.759'
p2868
sg12
S'5.395'
p2869
sg14
S'1.709'
p2870
sg16
S'yellow'
p2871
sg18
S'2014-01-14 05:00:00'
p2872
ssI318
(dp2873
g4
S'318'
p2874
sg6
S'7.724'
p2875
sg8
S'3.01'
p2876
sg10
S'5.295'
p2877
sg12
S'4.589'
p2878
sg14
S'2.212'
p2879
sg16
S'red'
p2880
sg18
S'2014-01-14 06:00:00'
p2881
ssI319
(dp2882
g4
S'319'
p2883
sg6
S'7.067'
p2884
sg8
S'4.573'
p2885
sg10
S'6.81'
p2886
sg12
S'4.654'
p2887
sg14
S'-0.029'
p2888
sg16
S'orange'
p2889
sg18
S'2014-01-14 07:00:00'
p2890
ssI320
(dp2891
g4
S'320'
p2892
sg6
S'6.34'
p2893
sg8
S'4.562'
p2894
sg10
S'4.364'
p2895
sg12
S'3.765'
p2896
sg14
S'0.226'
p2897
sg16
S'green'
p2898
sg18
S'2014-01-14 08:00:00'
p2899
ssI321
(dp2900
g4
S'321'
p2901
sg6
S'6.898'
p2902
sg8
S'2.771'
p2903
sg10
S'6.052'
p2904
sg12
S'5.584'
p2905
sg14
S'0.938'
p2906
sg16
S'red'
p2907
sg18
S'2014-01-14 09:00:00'
p2908
ssI322
(dp2909
g4
S'322'
p2910
sg6
S'6.233'
p2911
sg8
S'3.718'
p2912
sg10
S'4.927'
p2913
sg12
S'4.568'
p2914
sg14
S'0.709'
p2915
sg16
S'orange'
p2916
sg18
S'2014-01-14 10:00:00'
p2917
ssI323
(dp2918
g4
S'323'
p2919
sg6
S'8.448'
p2920
sg8
S'4.419'
p2921
sg10
S'8.934'
p2922
sg12
S'3.57'
p2923
sg14
S'0.821'
p2924
sg16
S'red'
p2925
sg18
S'2014-01-14 11:00:00'
p2926
ssI324
(dp2927
g4
S'324'
p2928
sg6
S'7.151'
p2929
sg8
S'4.085'
p2930
sg10
S'4.905'
p2931
sg12
S'3.903'
p2932
sg14
S'-0.073'
p2933
sg16
S'green'
p2934
sg18
S'2014-01-14 12:00:00'
p2935
ssI325
(dp2936
g4
S'325'
p2937
sg6
S'6.725'
p2938
sg8
S'4.728'
p2939
sg10
S'5.52'
p2940
sg12
S'3.278'
p2941
sg14
S'0.06'
p2942
sg16
S'blue'
p2943
sg18
S'2014-01-14 13:00:00'
p2944
ssI326
(dp2945
g4
S'326'
p2946
sg6
S'6.607'
p2947
sg8
S'3.347'
p2948
sg10
S'5.392'
p2949
sg12
S'3.619'
p2950
sg14
S'-0.16'
p2951
sg16
S'blue'
p2952
sg18
S'2014-01-14 14:00:00'
p2953
ssI327
(dp2954
g4
S'327'
p2955
sg6
S'7.331'
p2956
sg8
S'3.264'
p2957
sg10
S'5.494'
p2958
sg12
S'4.333'
p2959
sg14
S'1.153'
p2960
sg16
S'yellow'
p2961
sg18
S'2014-01-14 15:00:00'
p2962
ssI328
(dp2963
g4
S'328'
p2964
sg6
S'7.738'
p2965
sg8
S'3.718'
p2966
sg10
S'6.061'
p2967
sg12
S'2.907'
p2968
sg14
S'2.771'
p2969
sg16
S'red'
p2970
sg18
S'2014-01-14 16:00:00'
p2971
ssI329
(dp2972
g4
S'329'
p2973
sg6
S'5.871'
p2974
sg8
S'3.961'
p2975
sg10
S'3.272'
p2976
sg12
S'3.78'
p2977
sg14
S'-1.348'
p2978
sg16
S'orange'
p2979
sg18
S'2014-01-14 17:00:00'
p2980
ssI330
(dp2981
g4
S'330'
p2982
sg6
S'8.623'
p2983
sg8
S'3.142'
p2984
sg10
S'7.78'
p2985
sg12
S'3.465'
p2986
sg14
S'0.621'
p2987
sg16
S'red'
p2988
sg18
S'2014-01-14 18:00:00'
p2989
ssI331
(dp2990
g4
S'331'
p2991
sg6
S'6.981'
p2992
sg8
S'3.271'
p2993
sg10
S'5.651'
p2994
sg12
S'4.428'
p2995
sg14
S'1.09'
p2996
sg16
S'red'
p2997
sg18
S'2014-01-14 19:00:00'
p2998
ssI332
(dp2999
g4
S'332'
p3000
sg6
S'9.092'
p3001
sg8
S'4.864'
p3002
sg10
S'10.032'
p3003
sg12
S'4.257'
p3004
sg14
S'-0.178'
p3005
sg16
S'green'
p3006
sg18
S'2014-01-14 20:00:00'
p3007
ssI333
(dp3008
g4
S'333'
p3009
sg6
S'9.285'
p3010
sg8
S'4.297'
p3011
sg10
S'8.433'
p3012
sg12
S'4.48'
p3013
sg14
S'0.975'
p3014
sg16
S'red'
p3015
sg18
S'2014-01-14 21:00:00'
p3016
ssI334
(dp3017
g4
S'334'
p3018
sg6
S'7.021'
p3019
sg8
S'3.343'
p3020
sg10
S'5.173'
p3021
sg12
S'4.456'
p3022
sg14
S'1.498'
p3023
sg16
S'yellow'
p3024
sg18
S'2014-01-14 22:00:00'
p3025
ssI335
(dp3026
g4
S'335'
p3027
sg6
S'7.06'
p3028
sg8
S'2.39'
p3029
sg10
S'5.632'
p3030
sg12
S'5.074'
p3031
sg14
S'0.369'
p3032
sg16
S'green'
p3033
sg18
S'2014-01-14 23:00:00'
p3034
ssI336
(dp3035
g4
S'336'
p3036
sg6
S'6.23'
p3037
sg8
S'3.137'
p3038
sg10
S'4.61'
p3039
sg12
S'4.646'
p3040
sg14
S'0.75'
p3041
sg16
S'red'
p3042
sg18
S'2014-01-15 00:00:00'
p3043
ssI337
(dp3044
g4
S'337'
p3045
sg6
S'7.404'
p3046
sg8
S'3.301'
p3047
sg10
S'6.17'
p3048
sg12
S'5.841'
p3049
sg14
S'-0.509'
p3050
sg16
S'green'
p3051
sg18
S'2014-01-15 01:00:00'
p3052
ssI338
(dp3053
g4
S'338'
p3054
sg6
S'7.366'
p3055
sg8
S'3.744'
p3056
sg10
S'6.308'
p3057
sg12
S'3.913'
p3058
sg14
S'1.348'
p3059
sg16
S'yellow'
p3060
sg18
S'2014-01-15 02:00:00'
p3061
ssI339
(dp3062
g4
S'339'
p3063
sg6
S'7.213'
p3064
sg8
S'4.355'
p3065
sg10
S'5.198'
p3066
sg12
S'4.269'
p3067
sg14
S'0.493'
p3068
sg16
S'blue'
p3069
sg18
S'2014-01-15 03:00:00'
p3070
ssI340
(dp3071
g4
S'340'
p3072
sg6
S'9.2'
p3073
sg8
S'3.905'
p3074
sg10
S'8.448'
p3075
sg12
S'3.724'
p3076
sg14
S'0.757'
p3077
sg16
S'orange'
p3078
sg18
S'2014-01-15 04:00:00'
p3079
ssI341
(dp3080
g4
S'341'
p3081
sg6
S'7.89'
p3082
sg8
S'0.528'
p3083
sg10
S'6.88'
p3084
sg12
S'5.068'
p3085
sg14
S'-0.166'
p3086
sg16
S'red'
p3087
sg18
S'2014-01-15 05:00:00'
p3088
ssI342
(dp3089
g4
S'342'
p3090
sg6
S'7.915'
p3091
sg8
S'4.357'
p3092
sg10
S'6.173'
p3093
sg12
S'3.036'
p3094
sg14
S'0.215'
p3095
sg16
S'blue'
p3096
sg18
S'2014-01-15 06:00:00'
p3097
ssI343
(dp3098
g4
S'343'
p3099
sg6
S'6.336'
p3100
sg8
S'3.057'
p3101
sg10
S'4.808'
p3102
sg12
S'3.136'
p3103
sg14
S'-0.422'
p3104
sg16
S'orange'
p3105
sg18
S'2014-01-15 07:00:00'
p3106
ssI344
(dp3107
g4
S'344'
p3108
sg6
S'6.301'
p3109
sg8
S'3.64'
p3110
sg10
S'6.794'
p3111
sg12
S'3.706'
p3112
sg14
S'-0.82'
p3113
sg16
S'blue'
p3114
sg18
S'2014-01-15 08:00:00'
p3115
ssI345
(dp3116
g4
S'345'
p3117
sg6
S'7.912'
p3118
sg8
S'3.775'
p3119
sg10
S'6.473'
p3120
sg12
S'4.822'
p3121
sg14
S'0.037'
p3122
sg16
S'orange'
p3123
sg18
S'2014-01-15 09:00:00'
p3124
ssI346
(dp3125
g4
S'346'
p3126
sg6
S'9.229'
p3127
sg8
S'3.659'
p3128
sg10
S'5.372'
p3129
sg12
S'3.601'
p3130
sg14
S'0.235'
p3131
sg16
S'orange'
p3132
sg18
S'2014-01-15 10:00:00'
p3133
ssI347
(dp3134
g4
S'347'
p3135
sg6
S'8.098'
p3136
sg8
S'3.51'
p3137
sg10
S'5.832'
p3138
sg12
S'2.103'
p3139
sg14
S'0.859'
p3140
sg16
S'green'
p3141
sg18
S'2014-01-15 11:00:00'
p3142
ssI348
(dp3143
g4
S'348'
p3144
sg6
S'9.651'
p3145
sg8
S'3.991'
p3146
sg10
S'8.023'
p3147
sg12
S'3.922'
p3148
sg14
S'0.263'
p3149
sg16
S'green'
p3150
sg18
S'2014-01-15 12:00:00'
p3151
ssI349
(dp3152
g4
S'349'
p3153
sg6
S'9.112'
p3154
sg8
S'2.554'
p3155
sg10
S'8.752'
p3156
sg12
S'4.99'
p3157
sg14
S'0.495'
p3158
sg16
S'yellow'
p3159
sg18
S'2014-01-15 13:00:00'
p3160
ssI350
(dp3161
g4
S'350'
p3162
sg6
S'6.678'
p3163
sg8
S'1.031'
p3164
sg10
S'5.923'
p3165
sg12
S'4.837'
p3166
sg14
S'2.126'
p3167
sg16
S'yellow'
p3168
sg18
S'2014-01-15 14:00:00'
p3169
ssI351
(dp3170
g4
S'351'
p3171
sg6
S'8.486'
p3172
sg8
S'3.861'
p3173
sg10
S'5.816'
p3174
sg12
S'3.1'
p3175
sg14
S'-0.184'
p3176
sg16
S'orange'
p3177
sg18
S'2014-01-15 15:00:00'
p3178
ssI352
(dp3179
g4
S'352'
p3180
sg6
S'7.243'
p3181
sg8
S'2.795'
p3182
sg10
S'5.046'
p3183
sg12
S'3.473'
p3184
sg14
S'-0.104'
p3185
sg16
S'green'
p3186
sg18
S'2014-01-15 16:00:00'
p3187
ssI353
(dp3188
g4
S'353'
p3189
sg6
S'5.839'
p3190
sg8
S'2.507'
p3191
sg10
S'3.877'
p3192
sg12
S'2.836'
p3193
sg14
S'0.907'
p3194
sg16
S'orange'
p3195
sg18
S'2014-01-15 17:00:00'
p3196
ssI354
(dp3197
g4
S'354'
p3198
sg6
S'6.716'
p3199
sg8
S'4.288'
p3200
sg10
S'4.107'
p3201
sg12
S'3.115'
p3202
sg14
S'0.015'
p3203
sg16
S'green'
p3204
sg18
S'2014-01-15 18:00:00'
p3205
ssI355
(dp3206
g4
S'355'
p3207
sg6
S'8.244'
p3208
sg8
S'4.101'
p3209
sg10
S'6.172'
p3210
sg12
S'3.61'
p3211
sg14
S'2.225'
p3212
sg16
S'green'
p3213
sg18
S'2014-01-15 19:00:00'
p3214
ssI356
(dp3215
g4
S'356'
p3216
sg6
S'7.092'
p3217
sg8
S'4.052'
p3218
sg10
S'6.09'
p3219
sg12
S'2.514'
p3220
sg14
S'-0.473'
p3221
sg16
S'green'
p3222
sg18
S'2014-01-15 20:00:00'
p3223
ssI357
(dp3224
g4
S'357'
p3225
sg6
S'8.806'
p3226
sg8
S'3.725'
p3227
sg10
S'7.918'
p3228
sg12
S'4.234'
p3229
sg14
S'1.269'
p3230
sg16
S'orange'
p3231
sg18
S'2014-01-15 21:00:00'
p3232
ssI358
(dp3233
g4
S'358'
p3234
sg6
S'9.015'
p3235
sg8
S'4.267'
p3236
sg10
S'8.432'
p3237
sg12
S'5.257'
p3238
sg14
S'0.082'
p3239
sg16
S'orange'
p3240
sg18
S'2014-01-15 22:00:00'
p3241
ssI359
(dp3242
g4
S'359'
p3243
sg6
S'9.033'
p3244
sg8
S'2.921'
p3245
sg10
S'8.6'
p3246
sg12
S'3.203'
p3247
sg14
S'1.168'
p3248
sg16
S'orange'
p3249
sg18
S'2014-01-15 23:00:00'
p3250
ssI360
(dp3251
g4
S'360'
p3252
sg6
S'8.254'
p3253
sg8
S'4.634'
p3254
sg10
S'7.987'
p3255
sg12
S'1.448'
p3256
sg14
S'0.227'
p3257
sg16
S'yellow'
p3258
sg18
S'2014-01-16 00:00:00'
p3259
ssI361
(dp3260
g4
S'361'
p3261
sg6
S'6.916'
p3262
sg8
S'2.543'
p3263
sg10
S'5.249'
p3264
sg12
S'3.091'
p3265
sg14
S'-0.509'
p3266
sg16
S'yellow'
p3267
sg18
S'2014-01-16 01:00:00'
p3268
ssI362
(dp3269
g4
S'362'
p3270
sg6
S'7.252'
p3271
sg8
S'2.818'
p3272
sg10
S'6.326'
p3273
sg12
S'3.475'
p3274
sg14
S'0.544'
p3275
sg16
S'red'
p3276
sg18
S'2014-01-16 02:00:00'
p3277
ssI363
(dp3278
g4
S'363'
p3279
sg6
S'8.36'
p3280
sg8
S'4.342'
p3281
sg10
S'7.901'
p3282
sg12
S'5.209'
p3283
sg14
S'0.186'
p3284
sg16
S'orange'
p3285
sg18
S'2014-01-16 03:00:00'
p3286
ssI364
(dp3287
g4
S'364'
p3288
sg6
S'7.047'
p3289
sg8
S'2.713'
p3290
sg10
S'5.713'
p3291
sg12
S'3.85'
p3292
sg14
S'0.451'
p3293
sg16
S'blue'
p3294
sg18
S'2014-01-16 04:00:00'
p3295
ssI365
(dp3296
g4
S'365'
p3297
sg6
S'7.354'
p3298
sg8
S'5.063'
p3299
sg10
S'5.856'
p3300
sg12
S'4.593'
p3301
sg14
S'1.521'
p3302
sg16
S'orange'
p3303
sg18
S'2014-01-16 05:00:00'
p3304
ssI366
(dp3305
g4
S'366'
p3306
sg6
S'7.686'
p3307
sg8
S'1.69'
p3308
sg10
S'6.722'
p3309
sg12
S'3.072'
p3310
sg14
S'0.7'
p3311
sg16
S'red'
p3312
sg18
S'2014-01-16 06:00:00'
p3313
ssI367
(dp3314
g4
S'367'
p3315
sg6
S'7.537'
p3316
sg8
S'1.528'
p3317
sg10
S'5.428'
p3318
sg12
S'2.716'
p3319
sg14
S'0.559'
p3320
sg16
S'red'
p3321
sg18
S'2014-01-16 07:00:00'
p3322
ssI368
(dp3323
g4
S'368'
p3324
sg6
S'8.834'
p3325
sg8
S'3.041'
p3326
sg10
S'6.362'
p3327
sg12
S'3.791'
p3328
sg14
S'-0.432'
p3329
sg16
S'red'
p3330
sg18
S'2014-01-16 08:00:00'
p3331
ssI369
(dp3332
g4
S'369'
p3333
sg6
S'7.437'
p3334
sg8
S'4.794'
p3335
sg10
S'5.593'
p3336
sg12
S'2.556'
p3337
sg14
S'0.096'
p3338
sg16
S'yellow'
p3339
sg18
S'2014-01-16 09:00:00'
p3340
ssI370
(dp3341
g4
S'370'
p3342
sg6
S'8.187'
p3343
sg8
S'1.593'
p3344
sg10
S'6.734'
p3345
sg12
S'1.132'
p3346
sg14
S'0.442'
p3347
sg16
S'red'
p3348
sg18
S'2014-01-16 10:00:00'
p3349
ssI371
(dp3350
g4
S'371'
p3351
sg6
S'7.345'
p3352
sg8
S'2.582'
p3353
sg10
S'7.06'
p3354
sg12
S'4.893'
p3355
sg14
S'-0.047'
p3356
sg16
S'green'
p3357
sg18
S'2014-01-16 11:00:00'
p3358
ssI372
(dp3359
g4
S'372'
p3360
sg6
S'8.633'
p3361
sg8
S'1.833'
p3362
sg10
S'6.431'
p3363
sg12
S'2.676'
p3364
sg14
S'1.492'
p3365
sg16
S'yellow'
p3366
sg18
S'2014-01-16 12:00:00'
p3367
ssI373
(dp3368
g4
S'373'
p3369
sg6
S'6.019'
p3370
sg8
S'3.836'
p3371
sg10
S'4.967'
p3372
sg12
S'3.732'
p3373
sg14
S'0.229'
p3374
sg16
S'blue'
p3375
sg18
S'2014-01-16 13:00:00'
p3376
ssI374
(dp3377
g4
S'374'
p3378
sg6
S'7.759'
p3379
sg8
S'3.176'
p3380
sg10
S'5.258'
p3381
sg12
S'2.16'
p3382
sg14
S'2.698'
p3383
sg16
S'red'
p3384
sg18
S'2014-01-16 14:00:00'
p3385
ssI375
(dp3386
g4
S'375'
p3387
sg6
S'7.636'
p3388
sg8
S'4.284'
p3389
sg10
S'6.887'
p3390
sg12
S'4.37'
p3391
sg14
S'0.521'
p3392
sg16
S'red'
p3393
sg18
S'2014-01-16 15:00:00'
p3394
ssI376
(dp3395
g4
S'376'
p3396
sg6
S'8.158'
p3397
sg8
S'3.183'
p3398
sg10
S'6.736'
p3399
sg12
S'5.85'
p3400
sg14
S'0.833'
p3401
sg16
S'orange'
p3402
sg18
S'2014-01-16 16:00:00'
p3403
ssI377
(dp3404
g4
S'377'
p3405
sg6
S'7.482'
p3406
sg8
S'3.915'
p3407
sg10
S'5.97'
p3408
sg12
S'2.971'
p3409
sg14
S'0.946'
p3410
sg16
S'red'
p3411
sg18
S'2014-01-16 17:00:00'
p3412
ssI378
(dp3413
g4
S'378'
p3414
sg6
S'7.448'
p3415
sg8
S'4.8'
p3416
sg10
S'7.038'
p3417
sg12
S'3.404'
p3418
sg14
S'1.505'
p3419
sg16
S'red'
p3420
sg18
S'2014-01-16 18:00:00'
p3421
ssI379
(dp3422
g4
S'379'
p3423
sg6
S'7.156'
p3424
sg8
S'4.079'
p3425
sg10
S'6.123'
p3426
sg12
S'2.011'
p3427
sg14
S'-0.759'
p3428
sg16
S'blue'
p3429
sg18
S'2014-01-16 19:00:00'
p3430
ssI380
(dp3431
g4
S'380'
p3432
sg6
S'8.377'
p3433
sg8
S'3.031'
p3434
sg10
S'6.39'
p3435
sg12
S'3.969'
p3436
sg14
S'1.225'
p3437
sg16
S'green'
p3438
sg18
S'2014-01-16 20:00:00'
p3439
ssI381
(dp3440
g4
S'381'
p3441
sg6
S'7.768'
p3442
sg8
S'5.108'
p3443
sg10
S'7.385'
p3444
sg12
S'3.45'
p3445
sg14
S'2.37'
p3446
sg16
S'green'
p3447
sg18
S'2014-01-16 21:00:00'
p3448
ssI382
(dp3449
g4
S'382'
p3450
sg6
S'6.568'
p3451
sg8
S'2.651'
p3452
sg10
S'4.155'
p3453
sg12
S'3.203'
p3454
sg14
S'0.569'
p3455
sg16
S'yellow'
p3456
sg18
S'2014-01-16 22:00:00'
p3457
ssI383
(dp3458
g4
S'383'
p3459
sg6
S'6.194'
p3460
sg8
S'4.979'
p3461
sg10
S'5.709'
p3462
sg12
S'5.126'
p3463
sg14
S'0.322'
p3464
sg16
S'yellow'
p3465
sg18
S'2014-01-16 23:00:00'
p3466
ssI384
(dp3467
g4
S'384'
p3468
sg6
S'7.372'
p3469
sg8
S'3.013'
p3470
sg10
S'5.844'
p3471
sg12
S'3.23'
p3472
sg14
S'0.506'
p3473
sg16
S'red'
p3474
sg18
S'2014-01-17 00:00:00'
p3475
ssI385
(dp3476
g4
S'385'
p3477
sg6
S'7.842'
p3478
sg8
S'2.596'
p3479
sg10
S'6.26'
p3480
sg12
S'4.91'
p3481
sg14
S'-0.367'
p3482
sg16
S'blue'
p3483
sg18
S'2014-01-17 01:00:00'
p3484
ssI386
(dp3485
g4
S'386'
p3486
sg6
S'6.981'
p3487
sg8
S'3.011'
p3488
sg10
S'5.63'
p3489
sg12
S'4.247'
p3490
sg14
S'-0.678'
p3491
sg16
S'red'
p3492
sg18
S'2014-01-17 02:00:00'
p3493
ssI387
(dp3494
g4
S'387'
p3495
sg6
S'8.891'
p3496
sg8
S'3.038'
p3497
sg10
S'8.766'
p3498
sg12
S'3.342'
p3499
sg14
S'1.443'
p3500
sg16
S'yellow'
p3501
sg18
S'2014-01-17 03:00:00'
p3502
ssI388
(dp3503
g4
S'388'
p3504
sg6
S'6.585'
p3505
sg8
S'2.768'
p3506
sg10
S'6.023'
p3507
sg12
S'4.242'
p3508
sg14
S'0.109'
p3509
sg16
S'red'
p3510
sg18
S'2014-01-17 04:00:00'
p3511
ssI389
(dp3512
g4
S'389'
p3513
sg6
S'5.354'
p3514
sg8
S'2.983'
p3515
sg10
S'3.759'
p3516
sg12
S'2.291'
p3517
sg14
S'-0.923'
p3518
sg16
S'yellow'
p3519
sg18
S'2014-01-17 05:00:00'
p3520
ssI390
(dp3521
g4
S'390'
p3522
sg6
S'5.93'
p3523
sg8
S'4.321'
p3524
sg10
S'4.074'
p3525
sg12
S'5.46'
p3526
sg14
S'-0.232'
p3527
sg16
S'red'
p3528
sg18
S'2014-01-17 06:00:00'
p3529
ssI391
(dp3530
g4
S'391'
p3531
sg6
S'7.765'
p3532
sg8
S'4.103'
p3533
sg10
S'5.819'
p3534
sg12
S'4.604'
p3535
sg14
S'0.165'
p3536
sg16
S'yellow'
p3537
sg18
S'2014-01-17 07:00:00'
p3538
ssI392
(dp3539
g4
S'392'
p3540
sg6
S'9.588'
p3541
sg8
S'3.911'
p3542
sg10
S'7.889'
p3543
sg12
S'3.767'
p3544
sg14
S'1.106'
p3545
sg16
S'green'
p3546
sg18
S'2014-01-17 08:00:00'
p3547
ssI393
(dp3548
g4
S'393'
p3549
sg6
S'7.245'
p3550
sg8
S'2.489'
p3551
sg10
S'5.134'
p3552
sg12
S'2.139'
p3553
sg14
S'0.058'
p3554
sg16
S'red'
p3555
sg18
S'2014-01-17 09:00:00'
p3556
ssI394
(dp3557
g4
S'394'
p3558
sg6
S'7.462'
p3559
sg8
S'2.25'
p3560
sg10
S'7.295'
p3561
sg12
S'5.013'
p3562
sg14
S'-0.204'
p3563
sg16
S'green'
p3564
sg18
S'2014-01-17 10:00:00'
p3565
ssI395
(dp3566
g4
S'395'
p3567
sg6
S'8.674'
p3568
sg8
S'4.98'
p3569
sg10
S'7.606'
p3570
sg12
S'4.036'
p3571
sg14
S'1.838'
p3572
sg16
S'red'
p3573
sg18
S'2014-01-17 11:00:00'
p3574
ssI396
(dp3575
g4
S'396'
p3576
sg6
S'6.344'
p3577
sg8
S'3.463'
p3578
sg10
S'4.986'
p3579
sg12
S'4.073'
p3580
sg14
S'-0.161'
p3581
sg16
S'yellow'
p3582
sg18
S'2014-01-17 12:00:00'
p3583
ssI397
(dp3584
g4
S'397'
p3585
sg6
S'8.577'
p3586
sg8
S'4.014'
p3587
sg10
S'7.391'
p3588
sg12
S'2.944'
p3589
sg14
S'0.821'
p3590
sg16
S'blue'
p3591
sg18
S'2014-01-17 13:00:00'
p3592
ssI398
(dp3593
g4
S'398'
p3594
sg6
S'7.584'
p3595
sg8
S'3.005'
p3596
sg10
S'6.137'
p3597
sg12
S'5.717'
p3598
sg14
S'0.761'
p3599
sg16
S'orange'
p3600
sg18
S'2014-01-17 14:00:00'
p3601
ssI399
(dp3602
g4
S'399'
p3603
sg6
S'8.578'
p3604
sg8
S'4.267'
p3605
sg10
S'6.611'
p3606
sg12
S'3.8'
p3607
sg14
S'1.317'
p3608
sg16
S'red'
p3609
sg18
S'2014-01-17 15:00:00'
p3610
ssS'reclist'
p3611
(lp3612
I0
aI1
aI2
aI3
aI4
aI5
aI6
aI7
aI8
aI9
aI10
aI11
aI12
aI13
aI14
aI15
aI16
aI17
aI18
aI19
aI20
aI21
aI22
aI23
aI24
aI25
aI26
aI27
aI28
aI29
aI30
aI31
aI32
aI33
aI34
aI35
aI36
aI37
aI38
aI39
aI40
aI41
aI42
aI43
aI44
aI45
aI46
aI47
aI48
aI49
aI50
aI51
aI52
aI53
aI54
aI55
aI56
aI57
aI58
aI59
aI60
aI61
aI62
aI63
aI64
aI65
aI66
aI67
aI68
aI69
aI70
aI71
aI72
aI73
aI74
aI75
aI76
aI77
aI78
aI79
aI80
aI81
aI82
aI83
aI84
aI85
aI86
aI87
aI88
aI89
aI90
aI91
aI92
aI93
aI94
aI95
aI96
aI97
aI98
aI99
aI100
aI101
aI102
aI103
aI104
aI105
aI106
aI107
aI108
aI109
aI110
aI111
aI112
aI113
aI114
aI115
aI116
aI117
aI118
aI119
aI120
aI121
aI122
aI123
aI124
aI125
aI126
aI127
aI128
aI129
aI130
aI131
aI132
aI133
aI134
aI135
aI136
aI137
aI138
aI139
aI140
aI141
aI142
aI143
aI144
aI145
aI146
aI147
aI148
aI149
aI150
aI151
aI152
aI153
aI154
aI155
aI156
aI157
aI158
aI159
aI160
aI161
aI162
aI163
aI164
aI165
aI166
aI167
aI168
aI169
aI170
aI171
aI172
aI173
aI174
aI175
aI176
aI177
aI178
aI179
aI180
aI181
aI182
aI183
aI184
aI185
aI186
aI187
aI188
aI189
aI190
aI191
aI192
aI193
aI194
aI195
aI196
aI197
aI198
aI199
aI200
aI201
aI202
aI203
aI204
aI205
aI206
aI207
aI208
aI209
aI210
aI211
aI212
aI213
aI214
aI215
aI216
aI217
aI218
aI219
aI220
aI221
aI222
aI223
aI224
aI225
aI226
aI227
aI228
aI229
aI230
aI231
aI232
aI233
aI234
aI235
aI236
aI237
aI238
aI239
aI240
aI241
aI242
aI243
aI244
aI245
aI246
aI247
aI248
aI249
aI250
aI251
aI252
aI253
aI254
aI255
aI256
aI257
aI258
aI259
aI260
aI261
aI262
aI263
aI264
aI265
aI266
aI267
aI268
aI269
aI270
aI271
aI272
aI273
aI274
aI275
aI276
aI277
aI278
aI279
aI280
aI281
aI282
aI283
aI284
aI285
aI286
aI287
aI288
aI289
aI290
aI291
aI292
aI293
aI294
aI295
aI296
aI297
aI298
aI299
aI300
aI301
aI302
aI303
aI304
aI305
aI306
aI307
aI308
aI309
aI310
aI311
aI312
aI313
aI314
aI315
aI316
aI317
aI318
aI319
aI320
aI321
aI322
aI323
aI324
aI325
aI326
aI327
aI328
aI329
aI330
aI331
aI332
aI333
aI334
aI335
aI336
aI337
aI338
aI339
aI340
aI341
aI342
aI343
aI344
aI345
aI346
aI347
aI348
aI349
aI350
aI351
aI352
aI353
aI354
aI355
aI356
aI357
aI358
aI359
aI360
aI361
aI362
aI363
aI364
aI365
aI366
aI367
aI368
aI369
aI370
aI371
aI372
aI373
aI374
aI375
aI376
aI377
aI378
aI379
aI380
aI381
aI382
aI383
aI384
aI385
aI386
aI387
aI388
aI389
aI390
aI391
aI392
aI393
aI394
aI395
aI396
aI397
aI398
aI399
asS'colors'
p3613
(dp3614
S'bg'
p3615
(dp3616
sS'fg'
p3617
(dp3618
ssS'columnorder'
p3619
(dp3620
I0
g4
sI1
g6
sI2
g8
sI3
g10
sI4
g12
sI5
g14
sI6
g16
sI7
g18
ssS'columnlabels'
p3621
(dp3622
g4
g4
sg6
g6
sg8
g8
sg10
g10
sg12
g12
sg14
g14
sg16
g16
sg18
g18
ssS'columntypes'
p3623
(dp3624
g4
S'text'
p3625
sg6
g3625
sg8
g3625
sg10
g3625
sg12
g3625
sg14
g3625
sg16
g3625
sg18
g3625
ssS'columnnames'
p3626
(lp3627
g4
ag6
ag8
ag10
ag12
ag14
ag16
ag18
ass.